; generated by Component: ARM Compiler 5.06 update 2 (build 183) Tool: ArmCC [4d35cd]
; commandline ArmCC [--list --debug -c --asm --interleave -o..\..\output\cpg.o --asm_dir=..\..\Listing\ --list_dir=..\..\Listing\ --depend=..\..\output\cpg.d --cpu=Cortex-M3 --apcs=interwork -O0 --diag_suppress=9931 -I..\..\Libraries\CMSIS -I..\..\User -I..\..\Libraries\FWlib\inc -I..\..\User\Alogrisem\inc -I..\..\User\BSP_Init\inc -I..\..\User\exDev\inc -IH:\CETC\Project\第二代机器鱼程序\AV1.3\Project\RVMDK（uv4）\RTE -ID:\Keil_v5\ARM\PACK\Keil\STM32F1xx_DFP\1.0.5\Device\Include -ID:\Keil_v5\ARM\CMSIS\Include -D__MICROLIB -D__UVISION_VERSION=520 -DSTM32F10X_HD -DSTM32F10X_HD -DUSE_STDPERIPH_DRIVER -W --omf_browse=..\..\output\cpg.crf ..\..\User\Alogrisem\src\CPG.c]
                          THUMB

                          AREA ||.text||, CODE, READONLY, ALIGN=2

                  TaylorSin PROC
;;;267    
;;;268    float TaylorSin(float x)
000000  e92d47f0          PUSH     {r4-r10,lr}
;;;269    {
000004  4681              MOV      r9,r0
;;;270    	float y=0.0;
000006  f04f0a00          MOV      r10,#0
;;;271    	float temp;
;;;272    
;;;273            while(x>(2*PI))
00000a  e00b              B        |L1.36|
                  |L1.12|
;;;274                x=x-2*PI;
00000c  4648              MOV      r0,r9
00000e  f7fffffe          BL       __aeabi_f2d
000012  4607              MOV      r7,r0
000014  4afd              LDR      r2,|L1.1036|
000016  4bfe              LDR      r3,|L1.1040|
000018  f7fffffe          BL       __aeabi_dsub
00001c  4605              MOV      r5,r0
00001e  f7fffffe          BL       __aeabi_d2f
000022  4681              MOV      r9,r0
                  |L1.36|
000024  4648              MOV      r0,r9                 ;273
000026  f7fffffe          BL       __aeabi_f2d
00002a  4605              MOV      r5,r0                 ;273
00002c  4af7              LDR      r2,|L1.1036|
00002e  4bf8              LDR      r3,|L1.1040|
000030  f7fffffe          BL       __aeabi_cdrcmple
000034  d3ea              BCC      |L1.12|
;;;275            while(x<0)
000036  e00b              B        |L1.80|
                  |L1.56|
;;;276                x=x+2*PI;
000038  4648              MOV      r0,r9
00003a  f7fffffe          BL       __aeabi_f2d
00003e  4607              MOV      r7,r0
000040  4af2              LDR      r2,|L1.1036|
000042  4bf3              LDR      r3,|L1.1040|
000044  f7fffffe          BL       __aeabi_dadd
000048  4605              MOV      r5,r0
00004a  f7fffffe          BL       __aeabi_d2f
00004e  4681              MOV      r9,r0
                  |L1.80|
000050  2100              MOVS     r1,#0                 ;275
000052  4648              MOV      r0,r9                 ;275
000054  f7fffffe          BL       __aeabi_cfcmple
000058  d3ee              BCC      |L1.56|
;;;277    
;;;278            if(x<=(PI/2))
00005a  4648              MOV      r0,r9
00005c  f7fffffe          BL       __aeabi_f2d
000060  4605              MOV      r5,r0
000062  4aea              LDR      r2,|L1.1036|
000064  4beb              LDR      r3,|L1.1044|
000066  f7fffffe          BL       __aeabi_cdcmple
00006a  d810              BHI      |L1.142|
;;;279    		y=x-x*x*x/6;
00006c  4649              MOV      r1,r9
00006e  4648              MOV      r0,r9
000070  f7fffffe          BL       __aeabi_fmul
000074  4607              MOV      r7,r0
000076  4649              MOV      r1,r9
000078  f7fffffe          BL       __aeabi_fmul
00007c  4606              MOV      r6,r0
00007e  49e6              LDR      r1,|L1.1048|
000080  f7fffffe          BL       __aeabi_fdiv
000084  4605              MOV      r5,r0
000086  4649              MOV      r1,r9
000088  f7fffffe          BL       __aeabi_frsub
00008c  4682              MOV      r10,r0
                  |L1.142|
;;;280    
;;;281            if(x>(PI/2)&&x<=PI)
00008e  4648              MOV      r0,r9
000090  f7fffffe          BL       __aeabi_f2d
000094  4605              MOV      r5,r0
000096  4add              LDR      r2,|L1.1036|
000098  4bde              LDR      r3,|L1.1044|
00009a  f7fffffe          BL       __aeabi_cdrcmple
00009e  d225              BCS      |L1.236|
0000a0  4648              MOV      r0,r9
0000a2  f7fffffe          BL       __aeabi_f2d
0000a6  4605              MOV      r5,r0
0000a8  4ad8              LDR      r2,|L1.1036|
0000aa  4bdc              LDR      r3,|L1.1052|
0000ac  f7fffffe          BL       __aeabi_cdcmple
0000b0  d81c              BHI      |L1.236|
;;;282    	   {
;;;283    		temp=PI-x;
0000b2  4648              MOV      r0,r9
0000b4  f7fffffe          BL       __aeabi_f2d
0000b8  4607              MOV      r7,r0
0000ba  4ad4              LDR      r2,|L1.1036|
0000bc  4bd7              LDR      r3,|L1.1052|
0000be  f7fffffe          BL       __aeabi_drsub
0000c2  4605              MOV      r5,r0
0000c4  f7fffffe          BL       __aeabi_d2f
0000c8  4604              MOV      r4,r0
;;;284    		y=temp-temp*temp*temp/6;
0000ca  4621              MOV      r1,r4
0000cc  4620              MOV      r0,r4
0000ce  f7fffffe          BL       __aeabi_fmul
0000d2  4607              MOV      r7,r0
0000d4  4621              MOV      r1,r4
0000d6  f7fffffe          BL       __aeabi_fmul
0000da  4606              MOV      r6,r0
0000dc  49ce              LDR      r1,|L1.1048|
0000de  f7fffffe          BL       __aeabi_fdiv
0000e2  4605              MOV      r5,r0
0000e4  4621              MOV      r1,r4
0000e6  f7fffffe          BL       __aeabi_frsub
0000ea  4682              MOV      r10,r0
                  |L1.236|
;;;285    	   }
;;;286    
;;;287            if(x>PI&&x<=(PI*3/2))
0000ec  4648              MOV      r0,r9
0000ee  f7fffffe          BL       __aeabi_f2d
0000f2  4605              MOV      r5,r0
0000f4  4ac5              LDR      r2,|L1.1036|
0000f6  4bc9              LDR      r3,|L1.1052|
0000f8  f7fffffe          BL       __aeabi_cdrcmple
0000fc  d225              BCS      |L1.330|
0000fe  4648              MOV      r0,r9
000100  f7fffffe          BL       __aeabi_f2d
000104  4605              MOV      r5,r0
000106  4ac6              LDR      r2,|L1.1056|
000108  4bc6              LDR      r3,|L1.1060|
00010a  f7fffffe          BL       __aeabi_cdcmple
00010e  d81c              BHI      |L1.330|
;;;288    	   {
;;;289    		temp=x-PI;
000110  4648              MOV      r0,r9
000112  f7fffffe          BL       __aeabi_f2d
000116  4605              MOV      r5,r0
000118  4abc              LDR      r2,|L1.1036|
00011a  4bc0              LDR      r3,|L1.1052|
00011c  f7fffffe          BL       __aeabi_dsub
000120  4607              MOV      r7,r0
000122  f7fffffe          BL       __aeabi_d2f
000126  4604              MOV      r4,r0
;;;290    		y=temp*temp*temp/6-temp;
000128  4621              MOV      r1,r4
00012a  4620              MOV      r0,r4
00012c  f7fffffe          BL       __aeabi_fmul
000130  4607              MOV      r7,r0
000132  4621              MOV      r1,r4
000134  f7fffffe          BL       __aeabi_fmul
000138  4606              MOV      r6,r0
00013a  49b7              LDR      r1,|L1.1048|
00013c  f7fffffe          BL       __aeabi_fdiv
000140  4605              MOV      r5,r0
000142  4621              MOV      r1,r4
000144  f7fffffe          BL       __aeabi_fsub
000148  4682              MOV      r10,r0
                  |L1.330|
;;;291    	   }
;;;292    
;;;293    		if(x>(PI*3/2))
00014a  4648              MOV      r0,r9
00014c  f7fffffe          BL       __aeabi_f2d
000150  4605              MOV      r5,r0
000152  4ab3              LDR      r2,|L1.1056|
000154  4bb3              LDR      r3,|L1.1060|
000156  f7fffffe          BL       __aeabi_cdrcmple
00015a  d21c              BCS      |L1.406|
;;;294    	   {
;;;295    	        temp=2*PI-x;
00015c  4648              MOV      r0,r9
00015e  f7fffffe          BL       __aeabi_f2d
000162  4605              MOV      r5,r0
000164  4aa9              LDR      r2,|L1.1036|
000166  4baa              LDR      r3,|L1.1040|
000168  f7fffffe          BL       __aeabi_drsub
00016c  4607              MOV      r7,r0
00016e  f7fffffe          BL       __aeabi_d2f
000172  4604              MOV      r4,r0
;;;296    	        y=temp*temp*temp/6-temp;
000174  4621              MOV      r1,r4
000176  4620              MOV      r0,r4
000178  f7fffffe          BL       __aeabi_fmul
00017c  4607              MOV      r7,r0
00017e  4621              MOV      r1,r4
000180  f7fffffe          BL       __aeabi_fmul
000184  4606              MOV      r6,r0
000186  49a4              LDR      r1,|L1.1048|
000188  f7fffffe          BL       __aeabi_fdiv
00018c  4605              MOV      r5,r0
00018e  4621              MOV      r1,r4
000190  f7fffffe          BL       __aeabi_fsub
000194  4682              MOV      r10,r0
                  |L1.406|
;;;297    	   }
;;;298    	 return y;
000196  4650              MOV      r0,r10
;;;299    }
000198  e8bd87f0          POP      {r4-r10,pc}
;;;300    
                          ENDP

                  CPG_calculate PROC
;;;63     
;;;64     void CPG_calculate(void)
00019c  b500              PUSH     {lr}
;;;65     {               
00019e  b0a7              SUB      sp,sp,#0x9c
;;;66     	float omega[3];
;;;67     	float Amplitude_R[3];
;;;68     	float Offset_T[3];
;;;69     
;;;70     	omega[0]=Motor_Speed; 
0001a0  48a1              LDR      r0,|L1.1064|
0001a2  6800              LDR      r0,[r0,#0]  ; Motor_Speed
0001a4  9024              STR      r0,[sp,#0x90]
;;;71     	omega[1]=Motor_Speed; 
0001a6  48a0              LDR      r0,|L1.1064|
0001a8  6800              LDR      r0,[r0,#0]  ; Motor_Speed
0001aa  9025              STR      r0,[sp,#0x94]
;;;72     	omega[2]=Motor_Speed;
0001ac  489e              LDR      r0,|L1.1064|
0001ae  6800              LDR      r0,[r0,#0]  ; Motor_Speed
0001b0  9026              STR      r0,[sp,#0x98]
;;;73     
;;;74     	Amplitude_R[0]=Motor_Amplitude_degree[0]*PI/180;		// 角度转化为弧度[幅角]
0001b2  489e              LDR      r0,|L1.1068|
0001b4  6800              LDR      r0,[r0,#0]  ; Motor_Amplitude_degree
0001b6  9017              STR      r0,[sp,#0x5c]
0001b8  f7fffffe          BL       __aeabi_f2d
0001bc  4a93              LDR      r2,|L1.1036|
0001be  4b97              LDR      r3,|L1.1052|
0001c0  e9cd0118          STRD     r0,r1,[sp,#0x60]
0001c4  f7fffffe          BL       __aeabi_dmul
0001c8  2200              MOVS     r2,#0
0001ca  4b99              LDR      r3,|L1.1072|
0001cc  e9cd011a          STRD     r0,r1,[sp,#0x68]
0001d0  f7fffffe          BL       __aeabi_ddiv
0001d4  e9cd011c          STRD     r0,r1,[sp,#0x70]
0001d8  f7fffffe          BL       __aeabi_d2f
0001dc  9021              STR      r0,[sp,#0x84]
;;;75     	Amplitude_R[1]=Motor_Amplitude_degree[1]*PI/180;
0001de  4893              LDR      r0,|L1.1068|
0001e0  6840              LDR      r0,[r0,#4]  ; Motor_Amplitude_degree
0001e2  9017              STR      r0,[sp,#0x5c]
0001e4  f7fffffe          BL       __aeabi_f2d
0001e8  4a88              LDR      r2,|L1.1036|
0001ea  4b8c              LDR      r3,|L1.1052|
0001ec  e9cd0118          STRD     r0,r1,[sp,#0x60]
0001f0  f7fffffe          BL       __aeabi_dmul
0001f4  2200              MOVS     r2,#0
0001f6  4b8e              LDR      r3,|L1.1072|
0001f8  e9cd011a          STRD     r0,r1,[sp,#0x68]
0001fc  f7fffffe          BL       __aeabi_ddiv
000200  e9cd011c          STRD     r0,r1,[sp,#0x70]
000204  f7fffffe          BL       __aeabi_d2f
000208  9022              STR      r0,[sp,#0x88]
;;;76     	Amplitude_R[2]=Motor_Amplitude_degree[2]*PI/180;
00020a  4888              LDR      r0,|L1.1068|
00020c  6880              LDR      r0,[r0,#8]  ; Motor_Amplitude_degree
00020e  9017              STR      r0,[sp,#0x5c]
000210  f7fffffe          BL       __aeabi_f2d
000214  4a7d              LDR      r2,|L1.1036|
000216  4b81              LDR      r3,|L1.1052|
000218  e9cd0118          STRD     r0,r1,[sp,#0x60]
00021c  f7fffffe          BL       __aeabi_dmul
000220  2200              MOVS     r2,#0
000222  4b83              LDR      r3,|L1.1072|
000224  e9cd011a          STRD     r0,r1,[sp,#0x68]
000228  f7fffffe          BL       __aeabi_ddiv
00022c  e9cd011c          STRD     r0,r1,[sp,#0x70]
000230  f7fffffe          BL       __aeabi_d2f
000234  9023              STR      r0,[sp,#0x8c]
;;;77         
;;;78     	Offset_T[0]=Motor_Dynamic_Offset_degree[0]*PI/180;	// 动态偏角转化为弧度制
000236  487f              LDR      r0,|L1.1076|
000238  6800              LDR      r0,[r0,#0]  ; Motor_Dynamic_Offset_degree
00023a  9017              STR      r0,[sp,#0x5c]
00023c  f7fffffe          BL       __aeabi_f2d
000240  4a72              LDR      r2,|L1.1036|
000242  4b76              LDR      r3,|L1.1052|
000244  e9cd0118          STRD     r0,r1,[sp,#0x60]
000248  f7fffffe          BL       __aeabi_dmul
00024c  2200              MOVS     r2,#0
00024e  4b78              LDR      r3,|L1.1072|
000250  e9cd011a          STRD     r0,r1,[sp,#0x68]
000254  f7fffffe          BL       __aeabi_ddiv
000258  e9cd011c          STRD     r0,r1,[sp,#0x70]
00025c  f7fffffe          BL       __aeabi_d2f
000260  901e              STR      r0,[sp,#0x78]
;;;79     	Offset_T[1]=Motor_Dynamic_Offset_degree[1]*PI/180;
000262  4874              LDR      r0,|L1.1076|
000264  6840              LDR      r0,[r0,#4]  ; Motor_Dynamic_Offset_degree
000266  9017              STR      r0,[sp,#0x5c]
000268  f7fffffe          BL       __aeabi_f2d
00026c  4a67              LDR      r2,|L1.1036|
00026e  4b6b              LDR      r3,|L1.1052|
000270  e9cd0118          STRD     r0,r1,[sp,#0x60]
000274  f7fffffe          BL       __aeabi_dmul
000278  2200              MOVS     r2,#0
00027a  4b6d              LDR      r3,|L1.1072|
00027c  e9cd011a          STRD     r0,r1,[sp,#0x68]
000280  f7fffffe          BL       __aeabi_ddiv
000284  e9cd011c          STRD     r0,r1,[sp,#0x70]
000288  f7fffffe          BL       __aeabi_d2f
00028c  901f              STR      r0,[sp,#0x7c]
;;;80     	Offset_T[2]=Motor_Dynamic_Offset_degree[2]*PI/180;
00028e  4869              LDR      r0,|L1.1076|
000290  6880              LDR      r0,[r0,#8]  ; Motor_Dynamic_Offset_degree
000292  9017              STR      r0,[sp,#0x5c]
000294  f7fffffe          BL       __aeabi_f2d
000298  4a5c              LDR      r2,|L1.1036|
00029a  4b60              LDR      r3,|L1.1052|
00029c  e9cd0118          STRD     r0,r1,[sp,#0x60]
0002a0  f7fffffe          BL       __aeabi_dmul
0002a4  2200              MOVS     r2,#0
0002a6  4b62              LDR      r3,|L1.1072|
0002a8  e9cd011a          STRD     r0,r1,[sp,#0x68]
0002ac  f7fffffe          BL       __aeabi_ddiv
0002b0  e9cd011c          STRD     r0,r1,[sp,#0x70]
0002b4  f7fffffe          BL       __aeabi_d2f
0002b8  9020              STR      r0,[sp,#0x80]
;;;81         
;;;82     	Log_Angle[0][1]=Motor_Log_degree_12*PI/180;					// 关节1、2之间的相角差转化为弧度制
0002ba  485f              LDR      r0,|L1.1080|
0002bc  6800              LDR      r0,[r0,#0]  ; Motor_Log_degree_12
0002be  f7fffffe          BL       __aeabi_f2d
0002c2  4a52              LDR      r2,|L1.1036|
0002c4  4b55              LDR      r3,|L1.1052|
0002c6  e9cd0118          STRD     r0,r1,[sp,#0x60]
0002ca  f7fffffe          BL       __aeabi_dmul
0002ce  2200              MOVS     r2,#0
0002d0  4b57              LDR      r3,|L1.1072|
0002d2  e9cd011a          STRD     r0,r1,[sp,#0x68]
0002d6  f7fffffe          BL       __aeabi_ddiv
0002da  e9cd011c          STRD     r0,r1,[sp,#0x70]
0002de  f7fffffe          BL       __aeabi_d2f
0002e2  4956              LDR      r1,|L1.1084|
0002e4  6048              STR      r0,[r1,#4]  ; Log_Angle
;;;83     	Log_Angle[0][2]=Motor_Log_degree_13*PI/180;					
0002e6  4856              LDR      r0,|L1.1088|
0002e8  6800              LDR      r0,[r0,#0]  ; Motor_Log_degree_13
0002ea  f7fffffe          BL       __aeabi_f2d
0002ee  4a47              LDR      r2,|L1.1036|
0002f0  4b4a              LDR      r3,|L1.1052|
0002f2  e9cd0118          STRD     r0,r1,[sp,#0x60]
0002f6  f7fffffe          BL       __aeabi_dmul
0002fa  2200              MOVS     r2,#0
0002fc  4b4c              LDR      r3,|L1.1072|
0002fe  e9cd011a          STRD     r0,r1,[sp,#0x68]
000302  f7fffffe          BL       __aeabi_ddiv
000306  e9cd011c          STRD     r0,r1,[sp,#0x70]
00030a  f7fffffe          BL       __aeabi_d2f
00030e  494b              LDR      r1,|L1.1084|
000310  6088              STR      r0,[r1,#8]  ; Log_Angle
;;;84     	Log_Angle[1][2]=Log_Angle[0][2]-Log_Angle[0][1];		
000312  4608              MOV      r0,r1
000314  6840              LDR      r0,[r0,#4]  ; Log_Angle
000316  901d              STR      r0,[sp,#0x74]
000318  4608              MOV      r0,r1
00031a  6880              LDR      r0,[r0,#8]  ; Log_Angle
00031c  901c              STR      r0,[sp,#0x70]
00031e  991d              LDR      r1,[sp,#0x74]
000320  f7fffffe          BL       __aeabi_fsub
000324  4945              LDR      r1,|L1.1084|
000326  6148              STR      r0,[r1,#0x14]
;;;85     	Log_Angle[1][0]=-Log_Angle[0][1];
000328  4608              MOV      r0,r1
00032a  6840              LDR      r0,[r0,#4]  ; Log_Angle
00032c  f0804000          EOR      r0,r0,#0x80000000
000330  60c8              STR      r0,[r1,#0xc]  ; Log_Angle
;;;86     	Log_Angle[2][1]=-Log_Angle[1][2];
000332  4608              MOV      r0,r1
000334  6940              LDR      r0,[r0,#0x14]
000336  f0804100          EOR      r1,r0,#0x80000000
00033a  4840              LDR      r0,|L1.1084|
00033c  61c1              STR      r1,[r0,#0x1c]
;;;87     	Log_Angle[2][0]=-Log_Angle[0][2];
00033e  6880              LDR      r0,[r0,#8]  ; Log_Angle
000340  f0804000          EOR      r0,r0,#0x80000000
000344  493d              LDR      r1,|L1.1084|
000346  6188              STR      r0,[r1,#0x18]  ; Log_Angle
;;;88     	Log_Angle[0][0]=0;
000348  2000              MOVS     r0,#0
00034a  6008              STR      r0,[r1,#0]  ; Log_Angle
;;;89     	Log_Angle[1][1]=0;
00034c  2100              MOVS     r1,#0
00034e  483b              LDR      r0,|L1.1084|
000350  6101              STR      r1,[r0,#0x10]
;;;90     	Log_Angle[2][2]=0;
000352  6201              STR      r1,[r0,#0x20]
;;;91     
;;;92     	dr_present[0]=dr_previous[0]+T*((-Gain_R*Gain_R)*(r_previous[0]-Amplitude_R[0])-2*Gain_R*dr_previous[0]);
000354  483b              LDR      r0,|L1.1092|
000356  6800              LDR      r0,[r0,#0]  ; Gain_R
000358  0040              LSLS     r0,r0,#1
00035a  9018              STR      r0,[sp,#0x60]
00035c  f7fffffe          BL       __aeabi_i2f
000360  9019              STR      r0,[sp,#0x64]
000362  4839              LDR      r0,|L1.1096|
000364  6800              LDR      r0,[r0,#0]  ; dr_previous
000366  4601              MOV      r1,r0
000368  9018              STR      r0,[sp,#0x60]
00036a  9819              LDR      r0,[sp,#0x64]
00036c  f7fffffe          BL       __aeabi_fmul
000370  901b              STR      r0,[sp,#0x6c]
000372  9821              LDR      r0,[sp,#0x84]
000374  9017              STR      r0,[sp,#0x5c]
000376  4835              LDR      r0,|L1.1100|
000378  6800              LDR      r0,[r0,#0]  ; r_previous
00037a  9016              STR      r0,[sp,#0x58]
00037c  9917              LDR      r1,[sp,#0x5c]
00037e  f7fffffe          BL       __aeabi_fsub
000382  9019              STR      r0,[sp,#0x64]
000384  482f              LDR      r0,|L1.1092|
000386  6800              LDR      r0,[r0,#0]  ; Gain_R
000388  4240              RSBS     r0,r0,#0
00038a  492e              LDR      r1,|L1.1092|
00038c  6809              LDR      r1,[r1,#0]  ; Gain_R
00038e  4348              MULS     r0,r1,r0
000390  9017              STR      r0,[sp,#0x5c]
000392  f7fffffe          BL       __aeabi_i2f
000396  9018              STR      r0,[sp,#0x60]
000398  9919              LDR      r1,[sp,#0x64]
00039a  f7fffffe          BL       __aeabi_fmul
00039e  901a              STR      r0,[sp,#0x68]
0003a0  991b              LDR      r1,[sp,#0x6c]
0003a2  f7fffffe          BL       __aeabi_fsub
0003a6  901c              STR      r0,[sp,#0x70]
0003a8  4829              LDR      r0,|L1.1104|
0003aa  6801              LDR      r1,[r0,#0]  ; T
0003ac  981c              LDR      r0,[sp,#0x70]
0003ae  f7fffffe          BL       __aeabi_fmul
0003b2  901d              STR      r0,[sp,#0x74]
0003b4  4824              LDR      r0,|L1.1096|
0003b6  6800              LDR      r0,[r0,#0]  ; dr_previous
0003b8  4601              MOV      r1,r0
0003ba  901c              STR      r0,[sp,#0x70]
0003bc  981d              LDR      r0,[sp,#0x74]
0003be  f7fffffe          BL       __aeabi_fadd
0003c2  4924              LDR      r1,|L1.1108|
0003c4  6008              STR      r0,[r1,#0]  ; dr_present
;;;93     	r_present[0]=r_previous[0]+T*dr_present[0];
0003c6  4608              MOV      r0,r1
0003c8  6800              LDR      r0,[r0,#0]  ; dr_present
0003ca  4601              MOV      r1,r0
0003cc  901c              STR      r0,[sp,#0x70]
0003ce  4820              LDR      r0,|L1.1104|
0003d0  6800              LDR      r0,[r0,#0]  ; T
0003d2  f7fffffe          BL       __aeabi_fmul
0003d6  901d              STR      r0,[sp,#0x74]
0003d8  481c              LDR      r0,|L1.1100|
0003da  6800              LDR      r0,[r0,#0]  ; r_previous
0003dc  4601              MOV      r1,r0
0003de  901c              STR      r0,[sp,#0x70]
0003e0  981d              LDR      r0,[sp,#0x74]
0003e2  f7fffffe          BL       __aeabi_fadd
0003e6  491c              LDR      r1,|L1.1112|
0003e8  6008              STR      r0,[r1,#0]  ; r_present
;;;94     
;;;95     	dr_present[1]=dr_previous[1]+T*((-Gain_R*Gain_R)*(r_previous[1]-Amplitude_R[1])-2*Gain_R*dr_previous[1]);
0003ea  4816              LDR      r0,|L1.1092|
0003ec  6800              LDR      r0,[r0,#0]  ; Gain_R
0003ee  0040              LSLS     r0,r0,#1
0003f0  9018              STR      r0,[sp,#0x60]
0003f2  f7fffffe          BL       __aeabi_i2f
0003f6  9019              STR      r0,[sp,#0x64]
0003f8  4813              LDR      r0,|L1.1096|
0003fa  6840              LDR      r0,[r0,#4]  ; dr_previous
0003fc  4601              MOV      r1,r0
0003fe  9018              STR      r0,[sp,#0x60]
000400  9819              LDR      r0,[sp,#0x64]
000402  f7fffffe          BL       __aeabi_fmul
000406  901b              STR      r0,[sp,#0x6c]
000408  9822              LDR      r0,[sp,#0x88]
00040a  e027              B        |L1.1116|
                  |L1.1036|
                          DCD      0xf01b866e
                  |L1.1040|
                          DCD      0x401921f9
                  |L1.1044|
                          DCD      0x3ff921f9
                  |L1.1048|
                          DCD      0x40c00000
                  |L1.1052|
                          DCD      0x400921f9
                  |L1.1056|
                          DCD      0x7414a4d2
                  |L1.1060|
                          DCD      0x4012d97b
                  |L1.1064|
                          DCD      Motor_Speed
                  |L1.1068|
                          DCD      Motor_Amplitude_degree
                  |L1.1072|
                          DCD      0x40668000
                  |L1.1076|
                          DCD      Motor_Dynamic_Offset_degree
                  |L1.1080|
                          DCD      Motor_Log_degree_12
                  |L1.1084|
                          DCD      Log_Angle
                  |L1.1088|
                          DCD      Motor_Log_degree_13
                  |L1.1092|
                          DCD      Gain_R
                  |L1.1096|
                          DCD      dr_previous
                  |L1.1100|
                          DCD      r_previous
                  |L1.1104|
                          DCD      T
                  |L1.1108|
                          DCD      dr_present
                  |L1.1112|
                          DCD      r_present
                  |L1.1116|
00045c  9017              STR      r0,[sp,#0x5c]
00045e  48fe              LDR      r0,|L1.2136|
000460  6840              LDR      r0,[r0,#4]  ; r_previous
000462  9016              STR      r0,[sp,#0x58]
000464  9917              LDR      r1,[sp,#0x5c]
000466  f7fffffe          BL       __aeabi_fsub
00046a  9019              STR      r0,[sp,#0x64]
00046c  48fb              LDR      r0,|L1.2140|
00046e  6800              LDR      r0,[r0,#0]  ; Gain_R
000470  4240              RSBS     r0,r0,#0
000472  49fa              LDR      r1,|L1.2140|
000474  6809              LDR      r1,[r1,#0]  ; Gain_R
000476  4348              MULS     r0,r1,r0
000478  9017              STR      r0,[sp,#0x5c]
00047a  f7fffffe          BL       __aeabi_i2f
00047e  9018              STR      r0,[sp,#0x60]
000480  9919              LDR      r1,[sp,#0x64]
000482  f7fffffe          BL       __aeabi_fmul
000486  901a              STR      r0,[sp,#0x68]
000488  991b              LDR      r1,[sp,#0x6c]
00048a  f7fffffe          BL       __aeabi_fsub
00048e  901c              STR      r0,[sp,#0x70]
000490  48f3              LDR      r0,|L1.2144|
000492  6801              LDR      r1,[r0,#0]  ; T
000494  981c              LDR      r0,[sp,#0x70]
000496  f7fffffe          BL       __aeabi_fmul
00049a  901d              STR      r0,[sp,#0x74]
00049c  48f1              LDR      r0,|L1.2148|
00049e  6840              LDR      r0,[r0,#4]  ; dr_previous
0004a0  4601              MOV      r1,r0
0004a2  901c              STR      r0,[sp,#0x70]
0004a4  981d              LDR      r0,[sp,#0x74]
0004a6  f7fffffe          BL       __aeabi_fadd
0004aa  49ef              LDR      r1,|L1.2152|
0004ac  6048              STR      r0,[r1,#4]  ; dr_present
;;;96     	r_present[1]=r_previous[1]+T*dr_present[1];
0004ae  4608              MOV      r0,r1
0004b0  6840              LDR      r0,[r0,#4]  ; dr_present
0004b2  4601              MOV      r1,r0
0004b4  901c              STR      r0,[sp,#0x70]
0004b6  48ea              LDR      r0,|L1.2144|
0004b8  6800              LDR      r0,[r0,#0]  ; T
0004ba  f7fffffe          BL       __aeabi_fmul
0004be  901d              STR      r0,[sp,#0x74]
0004c0  48e5              LDR      r0,|L1.2136|
0004c2  6840              LDR      r0,[r0,#4]  ; r_previous
0004c4  4601              MOV      r1,r0
0004c6  901c              STR      r0,[sp,#0x70]
0004c8  981d              LDR      r0,[sp,#0x74]
0004ca  f7fffffe          BL       __aeabi_fadd
0004ce  49e7              LDR      r1,|L1.2156|
0004d0  6048              STR      r0,[r1,#4]  ; r_present
;;;97     
;;;98     	dr_present[2]=dr_previous[2]+T*((-Gain_R*Gain_R)*(r_previous[2]-Amplitude_R[2])-2*Gain_R*dr_previous[2]);
0004d2  48e2              LDR      r0,|L1.2140|
0004d4  6800              LDR      r0,[r0,#0]  ; Gain_R
0004d6  0040              LSLS     r0,r0,#1
0004d8  9018              STR      r0,[sp,#0x60]
0004da  f7fffffe          BL       __aeabi_i2f
0004de  9019              STR      r0,[sp,#0x64]
0004e0  48e0              LDR      r0,|L1.2148|
0004e2  6880              LDR      r0,[r0,#8]  ; dr_previous
0004e4  4601              MOV      r1,r0
0004e6  9018              STR      r0,[sp,#0x60]
0004e8  9819              LDR      r0,[sp,#0x64]
0004ea  f7fffffe          BL       __aeabi_fmul
0004ee  901b              STR      r0,[sp,#0x6c]
0004f0  9823              LDR      r0,[sp,#0x8c]
0004f2  9017              STR      r0,[sp,#0x5c]
0004f4  48d8              LDR      r0,|L1.2136|
0004f6  6880              LDR      r0,[r0,#8]  ; r_previous
0004f8  9016              STR      r0,[sp,#0x58]
0004fa  9917              LDR      r1,[sp,#0x5c]
0004fc  f7fffffe          BL       __aeabi_fsub
000500  9019              STR      r0,[sp,#0x64]
000502  48d6              LDR      r0,|L1.2140|
000504  6800              LDR      r0,[r0,#0]  ; Gain_R
000506  4240              RSBS     r0,r0,#0
000508  49d4              LDR      r1,|L1.2140|
00050a  6809              LDR      r1,[r1,#0]  ; Gain_R
00050c  4348              MULS     r0,r1,r0
00050e  9017              STR      r0,[sp,#0x5c]
000510  f7fffffe          BL       __aeabi_i2f
000514  9018              STR      r0,[sp,#0x60]
000516  9919              LDR      r1,[sp,#0x64]
000518  f7fffffe          BL       __aeabi_fmul
00051c  901a              STR      r0,[sp,#0x68]
00051e  991b              LDR      r1,[sp,#0x6c]
000520  f7fffffe          BL       __aeabi_fsub
000524  901c              STR      r0,[sp,#0x70]
000526  48ce              LDR      r0,|L1.2144|
000528  6801              LDR      r1,[r0,#0]  ; T
00052a  981c              LDR      r0,[sp,#0x70]
00052c  f7fffffe          BL       __aeabi_fmul
000530  901d              STR      r0,[sp,#0x74]
000532  48cc              LDR      r0,|L1.2148|
000534  6880              LDR      r0,[r0,#8]  ; dr_previous
000536  4601              MOV      r1,r0
000538  901c              STR      r0,[sp,#0x70]
00053a  981d              LDR      r0,[sp,#0x74]
00053c  f7fffffe          BL       __aeabi_fadd
000540  49c9              LDR      r1,|L1.2152|
000542  6088              STR      r0,[r1,#8]  ; dr_present
;;;99     	r_present[2]=r_previous[2]+T*dr_present[2];
000544  4608              MOV      r0,r1
000546  6880              LDR      r0,[r0,#8]  ; dr_present
000548  4601              MOV      r1,r0
00054a  901c              STR      r0,[sp,#0x70]
00054c  48c4              LDR      r0,|L1.2144|
00054e  6800              LDR      r0,[r0,#0]  ; T
000550  f7fffffe          BL       __aeabi_fmul
000554  901d              STR      r0,[sp,#0x74]
000556  48c0              LDR      r0,|L1.2136|
000558  6880              LDR      r0,[r0,#8]  ; r_previous
00055a  4601              MOV      r1,r0
00055c  901c              STR      r0,[sp,#0x70]
00055e  981d              LDR      r0,[sp,#0x74]
000560  f7fffffe          BL       __aeabi_fadd
000564  49c1              LDR      r1,|L1.2156|
000566  6088              STR      r0,[r1,#8]  ; r_present
;;;100    
;;;101    
;;;102    	dx_present[0]=dx_previous[0]+T*((-Gain_X*Gain_X)*(x_previous[0]-Offset_T[0])-2*Gain_X*dx_previous[0]);
000568  48c1              LDR      r0,|L1.2160|
00056a  6800              LDR      r0,[r0,#0]  ; Gain_X
00056c  0040              LSLS     r0,r0,#1
00056e  9018              STR      r0,[sp,#0x60]
000570  f7fffffe          BL       __aeabi_i2f
000574  9019              STR      r0,[sp,#0x64]
000576  48bf              LDR      r0,|L1.2164|
000578  6800              LDR      r0,[r0,#0]  ; dx_previous
00057a  4601              MOV      r1,r0
00057c  9018              STR      r0,[sp,#0x60]
00057e  9819              LDR      r0,[sp,#0x64]
000580  f7fffffe          BL       __aeabi_fmul
000584  901b              STR      r0,[sp,#0x6c]
000586  981e              LDR      r0,[sp,#0x78]
000588  9017              STR      r0,[sp,#0x5c]
00058a  48bb              LDR      r0,|L1.2168|
00058c  6800              LDR      r0,[r0,#0]  ; x_previous
00058e  9016              STR      r0,[sp,#0x58]
000590  9917              LDR      r1,[sp,#0x5c]
000592  f7fffffe          BL       __aeabi_fsub
000596  9019              STR      r0,[sp,#0x64]
000598  48b5              LDR      r0,|L1.2160|
00059a  6800              LDR      r0,[r0,#0]  ; Gain_X
00059c  4240              RSBS     r0,r0,#0
00059e  49b4              LDR      r1,|L1.2160|
0005a0  6809              LDR      r1,[r1,#0]  ; Gain_X
0005a2  4348              MULS     r0,r1,r0
0005a4  9017              STR      r0,[sp,#0x5c]
0005a6  f7fffffe          BL       __aeabi_i2f
0005aa  9018              STR      r0,[sp,#0x60]
0005ac  9919              LDR      r1,[sp,#0x64]
0005ae  f7fffffe          BL       __aeabi_fmul
0005b2  901a              STR      r0,[sp,#0x68]
0005b4  991b              LDR      r1,[sp,#0x6c]
0005b6  f7fffffe          BL       __aeabi_fsub
0005ba  901c              STR      r0,[sp,#0x70]
0005bc  48a8              LDR      r0,|L1.2144|
0005be  6801              LDR      r1,[r0,#0]  ; T
0005c0  981c              LDR      r0,[sp,#0x70]
0005c2  f7fffffe          BL       __aeabi_fmul
0005c6  901d              STR      r0,[sp,#0x74]
0005c8  48aa              LDR      r0,|L1.2164|
0005ca  6800              LDR      r0,[r0,#0]  ; dx_previous
0005cc  4601              MOV      r1,r0
0005ce  901c              STR      r0,[sp,#0x70]
0005d0  981d              LDR      r0,[sp,#0x74]
0005d2  f7fffffe          BL       __aeabi_fadd
0005d6  49a9              LDR      r1,|L1.2172|
0005d8  6008              STR      r0,[r1,#0]  ; dx_present
;;;103    	x_present[0]=x_previous[0]+T*dx_present[0];
0005da  4608              MOV      r0,r1
0005dc  6800              LDR      r0,[r0,#0]  ; dx_present
0005de  4601              MOV      r1,r0
0005e0  901c              STR      r0,[sp,#0x70]
0005e2  489f              LDR      r0,|L1.2144|
0005e4  6800              LDR      r0,[r0,#0]  ; T
0005e6  f7fffffe          BL       __aeabi_fmul
0005ea  901d              STR      r0,[sp,#0x74]
0005ec  48a2              LDR      r0,|L1.2168|
0005ee  6800              LDR      r0,[r0,#0]  ; x_previous
0005f0  4601              MOV      r1,r0
0005f2  901c              STR      r0,[sp,#0x70]
0005f4  981d              LDR      r0,[sp,#0x74]
0005f6  f7fffffe          BL       __aeabi_fadd
0005fa  49a1              LDR      r1,|L1.2176|
0005fc  6008              STR      r0,[r1,#0]  ; x_present
;;;104    
;;;105    	dx_present[1]=dx_previous[1]+T*((-Gain_X*Gain_X)*(x_previous[1]-Offset_T[1])-2*Gain_X*dx_previous[1]);
0005fe  489c              LDR      r0,|L1.2160|
000600  6800              LDR      r0,[r0,#0]  ; Gain_X
000602  0040              LSLS     r0,r0,#1
000604  9018              STR      r0,[sp,#0x60]
000606  f7fffffe          BL       __aeabi_i2f
00060a  9019              STR      r0,[sp,#0x64]
00060c  4899              LDR      r0,|L1.2164|
00060e  6840              LDR      r0,[r0,#4]  ; dx_previous
000610  4601              MOV      r1,r0
000612  9018              STR      r0,[sp,#0x60]
000614  9819              LDR      r0,[sp,#0x64]
000616  f7fffffe          BL       __aeabi_fmul
00061a  901b              STR      r0,[sp,#0x6c]
00061c  981f              LDR      r0,[sp,#0x7c]
00061e  9017              STR      r0,[sp,#0x5c]
000620  4895              LDR      r0,|L1.2168|
000622  6840              LDR      r0,[r0,#4]  ; x_previous
000624  9016              STR      r0,[sp,#0x58]
000626  9917              LDR      r1,[sp,#0x5c]
000628  f7fffffe          BL       __aeabi_fsub
00062c  9019              STR      r0,[sp,#0x64]
00062e  4890              LDR      r0,|L1.2160|
000630  6800              LDR      r0,[r0,#0]  ; Gain_X
000632  4240              RSBS     r0,r0,#0
000634  498e              LDR      r1,|L1.2160|
000636  6809              LDR      r1,[r1,#0]  ; Gain_X
000638  4348              MULS     r0,r1,r0
00063a  9017              STR      r0,[sp,#0x5c]
00063c  f7fffffe          BL       __aeabi_i2f
000640  9018              STR      r0,[sp,#0x60]
000642  9919              LDR      r1,[sp,#0x64]
000644  f7fffffe          BL       __aeabi_fmul
000648  901a              STR      r0,[sp,#0x68]
00064a  991b              LDR      r1,[sp,#0x6c]
00064c  f7fffffe          BL       __aeabi_fsub
000650  901c              STR      r0,[sp,#0x70]
000652  4883              LDR      r0,|L1.2144|
000654  6801              LDR      r1,[r0,#0]  ; T
000656  981c              LDR      r0,[sp,#0x70]
000658  f7fffffe          BL       __aeabi_fmul
00065c  901d              STR      r0,[sp,#0x74]
00065e  4885              LDR      r0,|L1.2164|
000660  6840              LDR      r0,[r0,#4]  ; dx_previous
000662  4601              MOV      r1,r0
000664  901c              STR      r0,[sp,#0x70]
000666  981d              LDR      r0,[sp,#0x74]
000668  f7fffffe          BL       __aeabi_fadd
00066c  4983              LDR      r1,|L1.2172|
00066e  6048              STR      r0,[r1,#4]  ; dx_present
;;;106    	x_present[1]=x_previous[1]+T*dx_present[1];
000670  4608              MOV      r0,r1
000672  6840              LDR      r0,[r0,#4]  ; dx_present
000674  4601              MOV      r1,r0
000676  901c              STR      r0,[sp,#0x70]
000678  4879              LDR      r0,|L1.2144|
00067a  6800              LDR      r0,[r0,#0]  ; T
00067c  f7fffffe          BL       __aeabi_fmul
000680  901d              STR      r0,[sp,#0x74]
000682  487d              LDR      r0,|L1.2168|
000684  6840              LDR      r0,[r0,#4]  ; x_previous
000686  4601              MOV      r1,r0
000688  901c              STR      r0,[sp,#0x70]
00068a  981d              LDR      r0,[sp,#0x74]
00068c  f7fffffe          BL       __aeabi_fadd
000690  497b              LDR      r1,|L1.2176|
000692  6048              STR      r0,[r1,#4]  ; x_present
;;;107    
;;;108    	dx_present[2]=dx_previous[2]+T*((-Gain_X*Gain_X)*(x_previous[2]-Offset_T[2])-2*Gain_X*dx_previous[2]);
000694  4876              LDR      r0,|L1.2160|
000696  6800              LDR      r0,[r0,#0]  ; Gain_X
000698  0040              LSLS     r0,r0,#1
00069a  9018              STR      r0,[sp,#0x60]
00069c  f7fffffe          BL       __aeabi_i2f
0006a0  9019              STR      r0,[sp,#0x64]
0006a2  4874              LDR      r0,|L1.2164|
0006a4  6880              LDR      r0,[r0,#8]  ; dx_previous
0006a6  4601              MOV      r1,r0
0006a8  9018              STR      r0,[sp,#0x60]
0006aa  9819              LDR      r0,[sp,#0x64]
0006ac  f7fffffe          BL       __aeabi_fmul
0006b0  901b              STR      r0,[sp,#0x6c]
0006b2  9820              LDR      r0,[sp,#0x80]
0006b4  9017              STR      r0,[sp,#0x5c]
0006b6  4870              LDR      r0,|L1.2168|
0006b8  6880              LDR      r0,[r0,#8]  ; x_previous
0006ba  9016              STR      r0,[sp,#0x58]
0006bc  9917              LDR      r1,[sp,#0x5c]
0006be  f7fffffe          BL       __aeabi_fsub
0006c2  9019              STR      r0,[sp,#0x64]
0006c4  486a              LDR      r0,|L1.2160|
0006c6  6800              LDR      r0,[r0,#0]  ; Gain_X
0006c8  4240              RSBS     r0,r0,#0
0006ca  4969              LDR      r1,|L1.2160|
0006cc  6809              LDR      r1,[r1,#0]  ; Gain_X
0006ce  4348              MULS     r0,r1,r0
0006d0  9017              STR      r0,[sp,#0x5c]
0006d2  f7fffffe          BL       __aeabi_i2f
0006d6  9018              STR      r0,[sp,#0x60]
0006d8  9919              LDR      r1,[sp,#0x64]
0006da  f7fffffe          BL       __aeabi_fmul
0006de  901a              STR      r0,[sp,#0x68]
0006e0  991b              LDR      r1,[sp,#0x6c]
0006e2  f7fffffe          BL       __aeabi_fsub
0006e6  901c              STR      r0,[sp,#0x70]
0006e8  485d              LDR      r0,|L1.2144|
0006ea  6801              LDR      r1,[r0,#0]  ; T
0006ec  981c              LDR      r0,[sp,#0x70]
0006ee  f7fffffe          BL       __aeabi_fmul
0006f2  901d              STR      r0,[sp,#0x74]
0006f4  485f              LDR      r0,|L1.2164|
0006f6  6880              LDR      r0,[r0,#8]  ; dx_previous
0006f8  4601              MOV      r1,r0
0006fa  901c              STR      r0,[sp,#0x70]
0006fc  981d              LDR      r0,[sp,#0x74]
0006fe  f7fffffe          BL       __aeabi_fadd
000702  495e              LDR      r1,|L1.2172|
000704  6088              STR      r0,[r1,#8]  ; dx_present
;;;109    	x_present[2]=x_previous[2]+T*dx_present[2];
000706  4608              MOV      r0,r1
000708  6880              LDR      r0,[r0,#8]  ; dx_present
00070a  4601              MOV      r1,r0
00070c  901c              STR      r0,[sp,#0x70]
00070e  4854              LDR      r0,|L1.2144|
000710  6800              LDR      r0,[r0,#0]  ; T
000712  f7fffffe          BL       __aeabi_fmul
000716  901d              STR      r0,[sp,#0x74]
000718  4857              LDR      r0,|L1.2168|
00071a  6880              LDR      r0,[r0,#8]  ; x_previous
00071c  4601              MOV      r1,r0
00071e  901c              STR      r0,[sp,#0x70]
000720  981d              LDR      r0,[sp,#0x74]
000722  f7fffffe          BL       __aeabi_fadd
000726  4956              LDR      r1,|L1.2176|
000728  6088              STR      r0,[r1,#8]  ; x_present
;;;110    
;;;111    	dfai[0]=dfai_previous[0]+T*(Coupling_Weight[0][1]*Coupling_Weight[0][1]*(fai_previous[1]-fai_previous[0]-Log_Angle[0][1])-2*(Coupling_Weight[0][1]+Coupling_Weight[0][2])*(dfai_previous[0]-2*PI*omega[0])+Coupling_Weight[0][2]*Coupling_Weight[0][2]*(fai_previous[2]-fai_previous[0]-Log_Angle[0][2]));
00072a  4856              LDR      r0,|L1.2180|
00072c  6800              LDR      r0,[r0,#0]  ; fai_previous
00072e  900b              STR      r0,[sp,#0x2c]
000730  4854              LDR      r0,|L1.2180|
000732  6880              LDR      r0,[r0,#8]  ; fai_previous
000734  900a              STR      r0,[sp,#0x28]
000736  990b              LDR      r1,[sp,#0x2c]
000738  f7fffffe          BL       __aeabi_fsub
00073c  900c              STR      r0,[sp,#0x30]
00073e  4852              LDR      r0,|L1.2184|
000740  6880              LDR      r0,[r0,#8]  ; Log_Angle
000742  4601              MOV      r1,r0
000744  900b              STR      r0,[sp,#0x2c]
000746  980c              LDR      r0,[sp,#0x30]
000748  f7fffffe          BL       __aeabi_fsub
00074c  900e              STR      r0,[sp,#0x38]
00074e  484f              LDR      r0,|L1.2188|
000750  6880              LDR      r0,[r0,#8]  ; Coupling_Weight
000752  900c              STR      r0,[sp,#0x30]
000754  484d              LDR      r0,|L1.2188|
000756  6880              LDR      r0,[r0,#8]  ; Coupling_Weight
000758  900b              STR      r0,[sp,#0x2c]
00075a  990c              LDR      r1,[sp,#0x30]
00075c  f7fffffe          BL       __aeabi_fmul
000760  900d              STR      r0,[sp,#0x34]
000762  990e              LDR      r1,[sp,#0x38]
000764  f7fffffe          BL       __aeabi_fmul
000768  900f              STR      r0,[sp,#0x3c]
00076a  f7fffffe          BL       __aeabi_f2d
00076e  e9cd0112          STRD     r0,r1,[sp,#0x48]
000772  9824              LDR      r0,[sp,#0x90]
000774  9001              STR      r0,[sp,#4]
000776  f7fffffe          BL       __aeabi_f2d
00077a  4a45              LDR      r2,|L1.2192|
00077c  4b45              LDR      r3,|L1.2196|
00077e  e9cd0102          STRD     r0,r1,[sp,#8]
000782  f7fffffe          BL       __aeabi_dmul
000786  e9cd0106          STRD     r0,r1,[sp,#0x18]
00078a  4843              LDR      r0,|L1.2200|
00078c  6800              LDR      r0,[r0,#0]  ; dfai_previous
00078e  9003              STR      r0,[sp,#0xc]
000790  f7fffffe          BL       __aeabi_f2d
000794  e9cd0104          STRD     r0,r1,[sp,#0x10]
000798  e9dd2306          LDRD     r2,r3,[sp,#0x18]
00079c  f7fffffe          BL       __aeabi_dsub
0007a0  e9cd010a          STRD     r0,r1,[sp,#0x28]
0007a4  4839              LDR      r0,|L1.2188|
0007a6  6880              LDR      r0,[r0,#8]  ; Coupling_Weight
0007a8  9005              STR      r0,[sp,#0x14]
0007aa  4838              LDR      r0,|L1.2188|
0007ac  6840              LDR      r0,[r0,#4]  ; Coupling_Weight
0007ae  9004              STR      r0,[sp,#0x10]
0007b0  9905              LDR      r1,[sp,#0x14]
0007b2  f7fffffe          BL       __aeabi_fadd
0007b6  f04f4180          MOV      r1,#0x40000000
0007ba  9006              STR      r0,[sp,#0x18]
0007bc  f7fffffe          BL       __aeabi_fmul
0007c0  9007              STR      r0,[sp,#0x1c]
0007c2  f7fffffe          BL       __aeabi_f2d
0007c6  e9cd0108          STRD     r0,r1,[sp,#0x20]
0007ca  e9dd230a          LDRD     r2,r3,[sp,#0x28]
0007ce  f7fffffe          BL       __aeabi_dmul
0007d2  e9cd010e          STRD     r0,r1,[sp,#0x38]
0007d6  482b              LDR      r0,|L1.2180|
0007d8  6800              LDR      r0,[r0,#0]  ; fai_previous
0007da  9007              STR      r0,[sp,#0x1c]
0007dc  4829              LDR      r0,|L1.2180|
0007de  6840              LDR      r0,[r0,#4]  ; fai_previous
0007e0  9006              STR      r0,[sp,#0x18]
0007e2  9907              LDR      r1,[sp,#0x1c]
0007e4  f7fffffe          BL       __aeabi_fsub
0007e8  9008              STR      r0,[sp,#0x20]
0007ea  4827              LDR      r0,|L1.2184|
0007ec  6840              LDR      r0,[r0,#4]  ; Log_Angle
0007ee  4601              MOV      r1,r0
0007f0  9007              STR      r0,[sp,#0x1c]
0007f2  9808              LDR      r0,[sp,#0x20]
0007f4  f7fffffe          BL       __aeabi_fsub
0007f8  900a              STR      r0,[sp,#0x28]
0007fa  4824              LDR      r0,|L1.2188|
0007fc  6840              LDR      r0,[r0,#4]  ; Coupling_Weight
0007fe  9008              STR      r0,[sp,#0x20]
000800  4822              LDR      r0,|L1.2188|
000802  6840              LDR      r0,[r0,#4]  ; Coupling_Weight
000804  9007              STR      r0,[sp,#0x1c]
000806  9908              LDR      r1,[sp,#0x20]
000808  f7fffffe          BL       __aeabi_fmul
00080c  9009              STR      r0,[sp,#0x24]
00080e  990a              LDR      r1,[sp,#0x28]
000810  f7fffffe          BL       __aeabi_fmul
000814  900b              STR      r0,[sp,#0x2c]
000816  f7fffffe          BL       __aeabi_f2d
00081a  e9cd010c          STRD     r0,r1,[sp,#0x30]
00081e  e9dd230e          LDRD     r2,r3,[sp,#0x38]
000822  f7fffffe          BL       __aeabi_dsub
000826  e9cd0110          STRD     r0,r1,[sp,#0x40]
00082a  e9dd2312          LDRD     r2,r3,[sp,#0x48]
00082e  f7fffffe          BL       __aeabi_dadd
000832  e9cd0116          STRD     r0,r1,[sp,#0x58]
000836  480a              LDR      r0,|L1.2144|
000838  6800              LDR      r0,[r0,#0]  ; T
00083a  f7fffffe          BL       __aeabi_f2d
00083e  e9cd0114          STRD     r0,r1,[sp,#0x50]
000842  e9dd2316          LDRD     r2,r3,[sp,#0x58]
000846  f7fffffe          BL       __aeabi_dmul
00084a  e9cd011a          STRD     r0,r1,[sp,#0x68]
00084e  4812              LDR      r0,|L1.2200|
000850  6800              LDR      r0,[r0,#0]  ; dfai_previous
000852  9017              STR      r0,[sp,#0x5c]
000854  e022              B        |L1.2204|
000856  0000              DCW      0x0000
                  |L1.2136|
                          DCD      r_previous
                  |L1.2140|
                          DCD      Gain_R
                  |L1.2144|
                          DCD      T
                  |L1.2148|
                          DCD      dr_previous
                  |L1.2152|
                          DCD      dr_present
                  |L1.2156|
                          DCD      r_present
                  |L1.2160|
                          DCD      Gain_X
                  |L1.2164|
                          DCD      dx_previous
                  |L1.2168|
                          DCD      x_previous
                  |L1.2172|
                          DCD      dx_present
                  |L1.2176|
                          DCD      x_present
                  |L1.2180|
                          DCD      fai_previous
                  |L1.2184|
                          DCD      Log_Angle
                  |L1.2188|
                          DCD      Coupling_Weight
                  |L1.2192|
                          DCD      0xf01b866e
                  |L1.2196|
                          DCD      0x401921f9
                  |L1.2200|
                          DCD      dfai_previous
                  |L1.2204|
00089c  f7fffffe          BL       __aeabi_f2d
0008a0  e9cd0118          STRD     r0,r1,[sp,#0x60]
0008a4  e9dd231a          LDRD     r2,r3,[sp,#0x68]
0008a8  f7fffffe          BL       __aeabi_dadd
0008ac  e9cd011c          STRD     r0,r1,[sp,#0x70]
0008b0  f7fffffe          BL       __aeabi_d2f
0008b4  49fe              LDR      r1,|L1.3248|
0008b6  6008              STR      r0,[r1,#0]  ; dfai
;;;112    	fai[0]=fai_previous[0]+T*dfai[0];
0008b8  4608              MOV      r0,r1
0008ba  6800              LDR      r0,[r0,#0]  ; dfai
0008bc  4601              MOV      r1,r0
0008be  901c              STR      r0,[sp,#0x70]
0008c0  48fc              LDR      r0,|L1.3252|
0008c2  6800              LDR      r0,[r0,#0]  ; T
0008c4  f7fffffe          BL       __aeabi_fmul
0008c8  901d              STR      r0,[sp,#0x74]
0008ca  48fb              LDR      r0,|L1.3256|
0008cc  6800              LDR      r0,[r0,#0]  ; fai_previous
0008ce  4601              MOV      r1,r0
0008d0  901c              STR      r0,[sp,#0x70]
0008d2  981d              LDR      r0,[sp,#0x74]
0008d4  f7fffffe          BL       __aeabi_fadd
0008d8  49f8              LDR      r1,|L1.3260|
0008da  6008              STR      r0,[r1,#0]  ; fai
;;;113    	dfai[1]=dfai_previous[1]+T*(Coupling_Weight[1][0]*Coupling_Weight[1][0]*(fai_previous[0]-fai_previous[1]-Log_Angle[1][0])-2*(Coupling_Weight[1][0]+Coupling_Weight[1][2])*(dfai_previous[1]-2*PI*omega[1])+Coupling_Weight[1][2]*Coupling_Weight[1][2]*(fai_previous[2]-fai_previous[1]-Log_Angle[1][2]));
0008dc  48f6              LDR      r0,|L1.3256|
0008de  6840              LDR      r0,[r0,#4]  ; fai_previous
0008e0  900b              STR      r0,[sp,#0x2c]
0008e2  48f5              LDR      r0,|L1.3256|
0008e4  6880              LDR      r0,[r0,#8]  ; fai_previous
0008e6  900a              STR      r0,[sp,#0x28]
0008e8  990b              LDR      r1,[sp,#0x2c]
0008ea  f7fffffe          BL       __aeabi_fsub
0008ee  900c              STR      r0,[sp,#0x30]
0008f0  48f3              LDR      r0,|L1.3264|
0008f2  6940              LDR      r0,[r0,#0x14]
0008f4  4601              MOV      r1,r0
0008f6  900b              STR      r0,[sp,#0x2c]
0008f8  980c              LDR      r0,[sp,#0x30]
0008fa  f7fffffe          BL       __aeabi_fsub
0008fe  900e              STR      r0,[sp,#0x38]
000900  48f0              LDR      r0,|L1.3268|
000902  6940              LDR      r0,[r0,#0x14]
000904  900c              STR      r0,[sp,#0x30]
000906  48ef              LDR      r0,|L1.3268|
000908  6940              LDR      r0,[r0,#0x14]
00090a  900b              STR      r0,[sp,#0x2c]
00090c  990c              LDR      r1,[sp,#0x30]
00090e  f7fffffe          BL       __aeabi_fmul
000912  900d              STR      r0,[sp,#0x34]
000914  990e              LDR      r1,[sp,#0x38]
000916  f7fffffe          BL       __aeabi_fmul
00091a  900f              STR      r0,[sp,#0x3c]
00091c  f7fffffe          BL       __aeabi_f2d
000920  e9cd0112          STRD     r0,r1,[sp,#0x48]
000924  9825              LDR      r0,[sp,#0x94]
000926  9001              STR      r0,[sp,#4]
000928  f7fffffe          BL       __aeabi_f2d
00092c  4ae6              LDR      r2,|L1.3272|
00092e  4be7              LDR      r3,|L1.3276|
000930  e9cd0102          STRD     r0,r1,[sp,#8]
000934  f7fffffe          BL       __aeabi_dmul
000938  e9cd0106          STRD     r0,r1,[sp,#0x18]
00093c  48e4              LDR      r0,|L1.3280|
00093e  6840              LDR      r0,[r0,#4]  ; dfai_previous
000940  9003              STR      r0,[sp,#0xc]
000942  f7fffffe          BL       __aeabi_f2d
000946  e9cd0104          STRD     r0,r1,[sp,#0x10]
00094a  e9dd2306          LDRD     r2,r3,[sp,#0x18]
00094e  f7fffffe          BL       __aeabi_dsub
000952  e9cd010a          STRD     r0,r1,[sp,#0x28]
000956  48db              LDR      r0,|L1.3268|
000958  6940              LDR      r0,[r0,#0x14]
00095a  9005              STR      r0,[sp,#0x14]
00095c  48d9              LDR      r0,|L1.3268|
00095e  68c0              LDR      r0,[r0,#0xc]  ; Coupling_Weight
000960  9004              STR      r0,[sp,#0x10]
000962  9905              LDR      r1,[sp,#0x14]
000964  f7fffffe          BL       __aeabi_fadd
000968  f04f4180          MOV      r1,#0x40000000
00096c  9006              STR      r0,[sp,#0x18]
00096e  f7fffffe          BL       __aeabi_fmul
000972  9007              STR      r0,[sp,#0x1c]
000974  f7fffffe          BL       __aeabi_f2d
000978  e9cd0108          STRD     r0,r1,[sp,#0x20]
00097c  e9dd230a          LDRD     r2,r3,[sp,#0x28]
000980  f7fffffe          BL       __aeabi_dmul
000984  e9cd010e          STRD     r0,r1,[sp,#0x38]
000988  48cb              LDR      r0,|L1.3256|
00098a  6840              LDR      r0,[r0,#4]  ; fai_previous
00098c  9007              STR      r0,[sp,#0x1c]
00098e  48ca              LDR      r0,|L1.3256|
000990  6800              LDR      r0,[r0,#0]  ; fai_previous
000992  9006              STR      r0,[sp,#0x18]
000994  9907              LDR      r1,[sp,#0x1c]
000996  f7fffffe          BL       __aeabi_fsub
00099a  9008              STR      r0,[sp,#0x20]
00099c  48c8              LDR      r0,|L1.3264|
00099e  68c0              LDR      r0,[r0,#0xc]  ; Log_Angle
0009a0  4601              MOV      r1,r0
0009a2  9007              STR      r0,[sp,#0x1c]
0009a4  9808              LDR      r0,[sp,#0x20]
0009a6  f7fffffe          BL       __aeabi_fsub
0009aa  900a              STR      r0,[sp,#0x28]
0009ac  48c5              LDR      r0,|L1.3268|
0009ae  68c0              LDR      r0,[r0,#0xc]  ; Coupling_Weight
0009b0  9008              STR      r0,[sp,#0x20]
0009b2  48c4              LDR      r0,|L1.3268|
0009b4  68c0              LDR      r0,[r0,#0xc]  ; Coupling_Weight
0009b6  9007              STR      r0,[sp,#0x1c]
0009b8  9908              LDR      r1,[sp,#0x20]
0009ba  f7fffffe          BL       __aeabi_fmul
0009be  9009              STR      r0,[sp,#0x24]
0009c0  990a              LDR      r1,[sp,#0x28]
0009c2  f7fffffe          BL       __aeabi_fmul
0009c6  900b              STR      r0,[sp,#0x2c]
0009c8  f7fffffe          BL       __aeabi_f2d
0009cc  e9cd010c          STRD     r0,r1,[sp,#0x30]
0009d0  e9dd230e          LDRD     r2,r3,[sp,#0x38]
0009d4  f7fffffe          BL       __aeabi_dsub
0009d8  e9cd0110          STRD     r0,r1,[sp,#0x40]
0009dc  e9dd2312          LDRD     r2,r3,[sp,#0x48]
0009e0  f7fffffe          BL       __aeabi_dadd
0009e4  e9cd0116          STRD     r0,r1,[sp,#0x58]
0009e8  48b2              LDR      r0,|L1.3252|
0009ea  6800              LDR      r0,[r0,#0]  ; T
0009ec  f7fffffe          BL       __aeabi_f2d
0009f0  e9cd0114          STRD     r0,r1,[sp,#0x50]
0009f4  e9dd2316          LDRD     r2,r3,[sp,#0x58]
0009f8  f7fffffe          BL       __aeabi_dmul
0009fc  e9cd011a          STRD     r0,r1,[sp,#0x68]
000a00  48b3              LDR      r0,|L1.3280|
000a02  6840              LDR      r0,[r0,#4]  ; dfai_previous
000a04  9017              STR      r0,[sp,#0x5c]
000a06  f7fffffe          BL       __aeabi_f2d
000a0a  e9cd0118          STRD     r0,r1,[sp,#0x60]
000a0e  e9dd231a          LDRD     r2,r3,[sp,#0x68]
000a12  f7fffffe          BL       __aeabi_dadd
000a16  e9cd011c          STRD     r0,r1,[sp,#0x70]
000a1a  f7fffffe          BL       __aeabi_d2f
000a1e  49a4              LDR      r1,|L1.3248|
000a20  6048              STR      r0,[r1,#4]  ; dfai
;;;114    	fai[1]=fai_previous[1]+T*dfai[1];
000a22  4608              MOV      r0,r1
000a24  6840              LDR      r0,[r0,#4]  ; dfai
000a26  4601              MOV      r1,r0
000a28  901c              STR      r0,[sp,#0x70]
000a2a  48a2              LDR      r0,|L1.3252|
000a2c  6800              LDR      r0,[r0,#0]  ; T
000a2e  f7fffffe          BL       __aeabi_fmul
000a32  901d              STR      r0,[sp,#0x74]
000a34  48a0              LDR      r0,|L1.3256|
000a36  6840              LDR      r0,[r0,#4]  ; fai_previous
000a38  4601              MOV      r1,r0
000a3a  901c              STR      r0,[sp,#0x70]
000a3c  981d              LDR      r0,[sp,#0x74]
000a3e  f7fffffe          BL       __aeabi_fadd
000a42  499e              LDR      r1,|L1.3260|
000a44  6048              STR      r0,[r1,#4]  ; fai
;;;115    	dfai[2]=dfai_previous[2]+T*(Coupling_Weight[2][0]*Coupling_Weight[2][0]*(fai_previous[0]-fai_previous[2]-Log_Angle[2][0])-2*(Coupling_Weight[2][0]+Coupling_Weight[2][1])*(dfai_previous[2]-2*PI*omega[2])+Coupling_Weight[2][1]*Coupling_Weight[2][1]*(fai_previous[1]-fai_previous[2]-Log_Angle[2][1]));
000a46  489c              LDR      r0,|L1.3256|
000a48  6880              LDR      r0,[r0,#8]  ; fai_previous
000a4a  900b              STR      r0,[sp,#0x2c]
000a4c  489a              LDR      r0,|L1.3256|
000a4e  6840              LDR      r0,[r0,#4]  ; fai_previous
000a50  900a              STR      r0,[sp,#0x28]
000a52  990b              LDR      r1,[sp,#0x2c]
000a54  f7fffffe          BL       __aeabi_fsub
000a58  900c              STR      r0,[sp,#0x30]
000a5a  4899              LDR      r0,|L1.3264|
000a5c  69c0              LDR      r0,[r0,#0x1c]
000a5e  4601              MOV      r1,r0
000a60  900b              STR      r0,[sp,#0x2c]
000a62  980c              LDR      r0,[sp,#0x30]
000a64  f7fffffe          BL       __aeabi_fsub
000a68  900e              STR      r0,[sp,#0x38]
000a6a  4896              LDR      r0,|L1.3268|
000a6c  69c0              LDR      r0,[r0,#0x1c]
000a6e  900c              STR      r0,[sp,#0x30]
000a70  4894              LDR      r0,|L1.3268|
000a72  69c0              LDR      r0,[r0,#0x1c]
000a74  900b              STR      r0,[sp,#0x2c]
000a76  990c              LDR      r1,[sp,#0x30]
000a78  f7fffffe          BL       __aeabi_fmul
000a7c  900d              STR      r0,[sp,#0x34]
000a7e  990e              LDR      r1,[sp,#0x38]
000a80  f7fffffe          BL       __aeabi_fmul
000a84  900f              STR      r0,[sp,#0x3c]
000a86  f7fffffe          BL       __aeabi_f2d
000a8a  e9cd0112          STRD     r0,r1,[sp,#0x48]
000a8e  9826              LDR      r0,[sp,#0x98]
000a90  9001              STR      r0,[sp,#4]
000a92  f7fffffe          BL       __aeabi_f2d
000a96  4a8c              LDR      r2,|L1.3272|
000a98  4b8c              LDR      r3,|L1.3276|
000a9a  e9cd0102          STRD     r0,r1,[sp,#8]
000a9e  f7fffffe          BL       __aeabi_dmul
000aa2  e9cd0106          STRD     r0,r1,[sp,#0x18]
000aa6  488a              LDR      r0,|L1.3280|
000aa8  6880              LDR      r0,[r0,#8]  ; dfai_previous
000aaa  9003              STR      r0,[sp,#0xc]
000aac  f7fffffe          BL       __aeabi_f2d
000ab0  e9cd0104          STRD     r0,r1,[sp,#0x10]
000ab4  e9dd2306          LDRD     r2,r3,[sp,#0x18]
000ab8  f7fffffe          BL       __aeabi_dsub
000abc  e9cd010a          STRD     r0,r1,[sp,#0x28]
000ac0  4880              LDR      r0,|L1.3268|
000ac2  69c0              LDR      r0,[r0,#0x1c]
000ac4  9005              STR      r0,[sp,#0x14]
000ac6  487f              LDR      r0,|L1.3268|
000ac8  6980              LDR      r0,[r0,#0x18]  ; Coupling_Weight
000aca  9004              STR      r0,[sp,#0x10]
000acc  9905              LDR      r1,[sp,#0x14]
000ace  f7fffffe          BL       __aeabi_fadd
000ad2  f04f4180          MOV      r1,#0x40000000
000ad6  9006              STR      r0,[sp,#0x18]
000ad8  f7fffffe          BL       __aeabi_fmul
000adc  9007              STR      r0,[sp,#0x1c]
000ade  f7fffffe          BL       __aeabi_f2d
000ae2  e9cd0108          STRD     r0,r1,[sp,#0x20]
000ae6  e9dd230a          LDRD     r2,r3,[sp,#0x28]
000aea  f7fffffe          BL       __aeabi_dmul
000aee  e9cd010e          STRD     r0,r1,[sp,#0x38]
000af2  4871              LDR      r0,|L1.3256|
000af4  6880              LDR      r0,[r0,#8]  ; fai_previous
000af6  9007              STR      r0,[sp,#0x1c]
000af8  486f              LDR      r0,|L1.3256|
000afa  6800              LDR      r0,[r0,#0]  ; fai_previous
000afc  9006              STR      r0,[sp,#0x18]
000afe  9907              LDR      r1,[sp,#0x1c]
000b00  f7fffffe          BL       __aeabi_fsub
000b04  9008              STR      r0,[sp,#0x20]
000b06  486e              LDR      r0,|L1.3264|
000b08  6980              LDR      r0,[r0,#0x18]  ; Log_Angle
000b0a  4601              MOV      r1,r0
000b0c  9007              STR      r0,[sp,#0x1c]
000b0e  9808              LDR      r0,[sp,#0x20]
000b10  f7fffffe          BL       __aeabi_fsub
000b14  900a              STR      r0,[sp,#0x28]
000b16  486b              LDR      r0,|L1.3268|
000b18  6980              LDR      r0,[r0,#0x18]  ; Coupling_Weight
000b1a  9008              STR      r0,[sp,#0x20]
000b1c  4869              LDR      r0,|L1.3268|
000b1e  6980              LDR      r0,[r0,#0x18]  ; Coupling_Weight
000b20  9007              STR      r0,[sp,#0x1c]
000b22  9908              LDR      r1,[sp,#0x20]
000b24  f7fffffe          BL       __aeabi_fmul
000b28  9009              STR      r0,[sp,#0x24]
000b2a  990a              LDR      r1,[sp,#0x28]
000b2c  f7fffffe          BL       __aeabi_fmul
000b30  900b              STR      r0,[sp,#0x2c]
000b32  f7fffffe          BL       __aeabi_f2d
000b36  e9cd010c          STRD     r0,r1,[sp,#0x30]
000b3a  e9dd230e          LDRD     r2,r3,[sp,#0x38]
000b3e  f7fffffe          BL       __aeabi_dsub
000b42  e9cd0110          STRD     r0,r1,[sp,#0x40]
000b46  e9dd2312          LDRD     r2,r3,[sp,#0x48]
000b4a  f7fffffe          BL       __aeabi_dadd
000b4e  e9cd0116          STRD     r0,r1,[sp,#0x58]
000b52  4858              LDR      r0,|L1.3252|
000b54  6800              LDR      r0,[r0,#0]  ; T
000b56  f7fffffe          BL       __aeabi_f2d
000b5a  e9cd0114          STRD     r0,r1,[sp,#0x50]
000b5e  e9dd2316          LDRD     r2,r3,[sp,#0x58]
000b62  f7fffffe          BL       __aeabi_dmul
000b66  e9cd011a          STRD     r0,r1,[sp,#0x68]
000b6a  4859              LDR      r0,|L1.3280|
000b6c  6880              LDR      r0,[r0,#8]  ; dfai_previous
000b6e  9017              STR      r0,[sp,#0x5c]
000b70  f7fffffe          BL       __aeabi_f2d
000b74  e9cd0118          STRD     r0,r1,[sp,#0x60]
000b78  e9dd231a          LDRD     r2,r3,[sp,#0x68]
000b7c  f7fffffe          BL       __aeabi_dadd
000b80  e9cd011c          STRD     r0,r1,[sp,#0x70]
000b84  f7fffffe          BL       __aeabi_d2f
000b88  4949              LDR      r1,|L1.3248|
000b8a  6088              STR      r0,[r1,#8]  ; dfai
;;;116    	fai[2]=fai_previous[2]+T*dfai[2];
000b8c  4608              MOV      r0,r1
000b8e  6880              LDR      r0,[r0,#8]  ; dfai
000b90  4601              MOV      r1,r0
000b92  901c              STR      r0,[sp,#0x70]
000b94  4847              LDR      r0,|L1.3252|
000b96  6800              LDR      r0,[r0,#0]  ; T
000b98  f7fffffe          BL       __aeabi_fmul
000b9c  901d              STR      r0,[sp,#0x74]
000b9e  4846              LDR      r0,|L1.3256|
000ba0  6880              LDR      r0,[r0,#8]  ; fai_previous
000ba2  4601              MOV      r1,r0
000ba4  901c              STR      r0,[sp,#0x70]
000ba6  981d              LDR      r0,[sp,#0x74]
000ba8  f7fffffe          BL       __aeabi_fadd
000bac  4943              LDR      r1,|L1.3260|
000bae  6088              STR      r0,[r1,#8]  ; fai
;;;117    
;;;118    	theta[0]=x_present[0]+r_present[0]*TaylorSin(fai[0]);  
000bb0  4608              MOV      r0,r1
000bb2  6800              LDR      r0,[r0,#0]  ; fai
000bb4  901b              STR      r0,[sp,#0x6c]
000bb6  f7fffffe          BL       TaylorSin
000bba  901c              STR      r0,[sp,#0x70]
000bbc  4845              LDR      r0,|L1.3284|
000bbe  6800              LDR      r0,[r0,#0]  ; r_present
000bc0  4601              MOV      r1,r0
000bc2  901b              STR      r0,[sp,#0x6c]
000bc4  981c              LDR      r0,[sp,#0x70]
000bc6  f7fffffe          BL       __aeabi_fmul
000bca  901d              STR      r0,[sp,#0x74]
000bcc  4842              LDR      r0,|L1.3288|
000bce  6800              LDR      r0,[r0,#0]  ; x_present
000bd0  4601              MOV      r1,r0
000bd2  901c              STR      r0,[sp,#0x70]
000bd4  981d              LDR      r0,[sp,#0x74]
000bd6  f7fffffe          BL       __aeabi_fadd
000bda  4940              LDR      r1,|L1.3292|
000bdc  6008              STR      r0,[r1,#0]  ; theta
;;;119    	theta[1]=x_present[1]+r_present[1]*TaylorSin(fai[1]);
000bde  4837              LDR      r0,|L1.3260|
000be0  6840              LDR      r0,[r0,#4]  ; fai
000be2  901b              STR      r0,[sp,#0x6c]
000be4  f7fffffe          BL       TaylorSin
000be8  901c              STR      r0,[sp,#0x70]
000bea  483a              LDR      r0,|L1.3284|
000bec  6840              LDR      r0,[r0,#4]  ; r_present
000bee  4601              MOV      r1,r0
000bf0  901b              STR      r0,[sp,#0x6c]
000bf2  981c              LDR      r0,[sp,#0x70]
000bf4  f7fffffe          BL       __aeabi_fmul
000bf8  901d              STR      r0,[sp,#0x74]
000bfa  4837              LDR      r0,|L1.3288|
000bfc  6840              LDR      r0,[r0,#4]  ; x_present
000bfe  4601              MOV      r1,r0
000c00  901c              STR      r0,[sp,#0x70]
000c02  981d              LDR      r0,[sp,#0x74]
000c04  f7fffffe          BL       __aeabi_fadd
000c08  4934              LDR      r1,|L1.3292|
000c0a  6048              STR      r0,[r1,#4]  ; theta
;;;120    	theta[2]=x_present[2]+r_present[2]*TaylorSin(fai[2]);
000c0c  482b              LDR      r0,|L1.3260|
000c0e  6880              LDR      r0,[r0,#8]  ; fai
000c10  901b              STR      r0,[sp,#0x6c]
000c12  f7fffffe          BL       TaylorSin
000c16  901c              STR      r0,[sp,#0x70]
000c18  482e              LDR      r0,|L1.3284|
000c1a  6880              LDR      r0,[r0,#8]  ; r_present
000c1c  4601              MOV      r1,r0
000c1e  901b              STR      r0,[sp,#0x6c]
000c20  981c              LDR      r0,[sp,#0x70]
000c22  f7fffffe          BL       __aeabi_fmul
000c26  901d              STR      r0,[sp,#0x74]
000c28  482b              LDR      r0,|L1.3288|
000c2a  6880              LDR      r0,[r0,#8]  ; x_present
000c2c  4601              MOV      r1,r0
000c2e  901c              STR      r0,[sp,#0x70]
000c30  981d              LDR      r0,[sp,#0x74]
000c32  f7fffffe          BL       __aeabi_fadd
000c36  4929              LDR      r1,|L1.3292|
000c38  6088              STR      r0,[r1,#8]  ; theta
;;;121    
;;;122    //	Joint_Angle_value[0] = MiddlePosition_value + Motor_Static_Offset_degree[0]*10*Trans_factor + theta[0] *180/PI* 10 * Trans_factor;
;;;123    //	Joint_Angle_value[0] = Joint_Angle_value[0] > RightLimit_value ? RightLimit_value   :  Joint_Angle_value[0];
;;;124    //	Joint_Angle_value[0] = Joint_Angle_value[0] < LeftLimit_value   ? LeftLimit_value   :  Joint_Angle_value[0];
;;;125    
;;;126    //	Joint_Angle_value[1] = MiddlePosition_value + Motor_Static_Offset_degree[1] * 10 * Trans_factor + theta[1] *180/PI* 10 * Trans_factor;
;;;127    //	Joint_Angle_value[1] = Joint_Angle_value[1] > RightLimit_value ? RightLimit_value   :  Joint_Angle_value[1];
;;;128    //	Joint_Angle_value[1] = Joint_Angle_value[1] < LeftLimit_value   ? LeftLimit_value   :  Joint_Angle_value[1];   
;;;129    
;;;130    //	Joint_Angle_value[2] = MiddlePosition_value + Motor_Static_Offset_degree[2]*10*Trans_factor + theta[2] *180/PI* 10 * Trans_factor;
;;;131    //	Joint_Angle_value[2] = Joint_Angle_value[2] > RightLimit_value ? RightLimit_value   :  Joint_Angle_value[2];
;;;132    //	Joint_Angle_value[2] = Joint_Angle_value[2] < LeftLimit_value   ? LeftLimit_value   :  Joint_Angle_value[2];   
;;;133    
;;;134    	dr_previous[0] = dr_present[0];
000c3a  4829              LDR      r0,|L1.3296|
000c3c  6800              LDR      r0,[r0,#0]  ; dr_present
000c3e  4929              LDR      r1,|L1.3300|
000c40  6008              STR      r0,[r1,#0]  ; dr_previous
;;;135    	r_previous[0] = r_present[0];
000c42  4824              LDR      r0,|L1.3284|
000c44  6800              LDR      r0,[r0,#0]  ; r_present
000c46  4928              LDR      r1,|L1.3304|
000c48  6008              STR      r0,[r1,#0]  ; r_previous
;;;136    	dr_previous[1] = dr_present[1];
000c4a  4825              LDR      r0,|L1.3296|
000c4c  6840              LDR      r0,[r0,#4]  ; dr_present
000c4e  4925              LDR      r1,|L1.3300|
000c50  6048              STR      r0,[r1,#4]  ; dr_previous
;;;137    	r_previous[1]= r_present[1];
000c52  4820              LDR      r0,|L1.3284|
000c54  6840              LDR      r0,[r0,#4]  ; r_present
000c56  4924              LDR      r1,|L1.3304|
000c58  6048              STR      r0,[r1,#4]  ; r_previous
;;;138    	dr_previous[2] = dr_present[2];
000c5a  4821              LDR      r0,|L1.3296|
000c5c  6880              LDR      r0,[r0,#8]  ; dr_present
000c5e  4921              LDR      r1,|L1.3300|
000c60  6088              STR      r0,[r1,#8]  ; dr_previous
;;;139    	r_previous[2]= r_present[2];
000c62  481c              LDR      r0,|L1.3284|
000c64  6880              LDR      r0,[r0,#8]  ; r_present
000c66  4920              LDR      r1,|L1.3304|
000c68  6088              STR      r0,[r1,#8]  ; r_previous
;;;140    
;;;141    	dx_previous[0] = dx_present[0];
000c6a  4820              LDR      r0,|L1.3308|
000c6c  6800              LDR      r0,[r0,#0]  ; dx_present
000c6e  4920              LDR      r1,|L1.3312|
000c70  6008              STR      r0,[r1,#0]  ; dx_previous
;;;142    	x_previous[0] = x_present[0];
000c72  4819              LDR      r0,|L1.3288|
000c74  6800              LDR      r0,[r0,#0]  ; x_present
000c76  491f              LDR      r1,|L1.3316|
000c78  6008              STR      r0,[r1,#0]  ; x_previous
;;;143    	dx_previous[1] = dx_present[1];
000c7a  481c              LDR      r0,|L1.3308|
000c7c  6840              LDR      r0,[r0,#4]  ; dx_present
000c7e  491c              LDR      r1,|L1.3312|
000c80  6048              STR      r0,[r1,#4]  ; dx_previous
;;;144    	x_previous[1]= x_present[1];
000c82  4815              LDR      r0,|L1.3288|
000c84  6840              LDR      r0,[r0,#4]  ; x_present
000c86  491b              LDR      r1,|L1.3316|
000c88  6048              STR      r0,[r1,#4]  ; x_previous
;;;145    	dx_previous[2] = dx_present[2];
000c8a  4818              LDR      r0,|L1.3308|
000c8c  6880              LDR      r0,[r0,#8]  ; dx_present
000c8e  4918              LDR      r1,|L1.3312|
000c90  6088              STR      r0,[r1,#8]  ; dx_previous
;;;146    	x_previous[2]= x_present[2];
000c92  4811              LDR      r0,|L1.3288|
000c94  6880              LDR      r0,[r0,#8]  ; x_present
000c96  4917              LDR      r1,|L1.3316|
000c98  6088              STR      r0,[r1,#8]  ; x_previous
;;;147    
;;;148    	if(min(min(fai[0],fai[1]),min(fai[1],fai[2]))>2*PI)
000c9a  4808              LDR      r0,|L1.3260|
000c9c  6880              LDR      r0,[r0,#8]  ; fai
000c9e  9018              STR      r0,[sp,#0x60]
000ca0  4806              LDR      r0,|L1.3260|
000ca2  6840              LDR      r0,[r0,#4]  ; fai
000ca4  9017              STR      r0,[sp,#0x5c]
000ca6  9918              LDR      r1,[sp,#0x60]
000ca8  f7fffffe          BL       __aeabi_cfcmple
000cac  d227              BCS      |L1.3326|
000cae  e023              B        |L1.3320|
                  |L1.3248|
                          DCD      dfai
                  |L1.3252|
                          DCD      T
                  |L1.3256|
                          DCD      fai_previous
                  |L1.3260|
                          DCD      ||fai||
                  |L1.3264|
                          DCD      Log_Angle
                  |L1.3268|
                          DCD      Coupling_Weight
                  |L1.3272|
                          DCD      0xf01b866e
                  |L1.3276|
                          DCD      0x401921f9
                  |L1.3280|
                          DCD      dfai_previous
                  |L1.3284|
                          DCD      r_present
                  |L1.3288|
                          DCD      x_present
                  |L1.3292|
                          DCD      theta
                  |L1.3296|
                          DCD      dr_present
                  |L1.3300|
                          DCD      dr_previous
                  |L1.3304|
                          DCD      r_previous
                  |L1.3308|
                          DCD      dx_present
                  |L1.3312|
                          DCD      dx_previous
                  |L1.3316|
                          DCD      x_previous
                  |L1.3320|
000cf8  48fe              LDR      r0,|L1.4340|
000cfa  6840              LDR      r0,[r0,#4]  ; fai
000cfc  e001              B        |L1.3330|
                  |L1.3326|
000cfe  48fd              LDR      r0,|L1.4340|
000d00  6880              LDR      r0,[r0,#8]  ; fai
                  |L1.3330|
000d02  901a              STR      r0,[sp,#0x68]
000d04  48fb              LDR      r0,|L1.4340|
000d06  6840              LDR      r0,[r0,#4]  ; fai
000d08  9018              STR      r0,[sp,#0x60]
000d0a  48fa              LDR      r0,|L1.4340|
000d0c  6800              LDR      r0,[r0,#0]  ; fai
000d0e  9017              STR      r0,[sp,#0x5c]
000d10  9918              LDR      r1,[sp,#0x60]
000d12  f7fffffe          BL       __aeabi_cfcmple
000d16  d202              BCS      |L1.3358|
000d18  48f6              LDR      r0,|L1.4340|
000d1a  6800              LDR      r0,[r0,#0]  ; fai
000d1c  e001              B        |L1.3362|
                  |L1.3358|
000d1e  48f5              LDR      r0,|L1.4340|
000d20  6840              LDR      r0,[r0,#4]  ; fai
                  |L1.3362|
000d22  9019              STR      r0,[sp,#0x64]
000d24  991a              LDR      r1,[sp,#0x68]
000d26  f7fffffe          BL       __aeabi_cfcmple
000d2a  d20f              BCS      |L1.3404|
000d2c  48f1              LDR      r0,|L1.4340|
000d2e  6840              LDR      r0,[r0,#4]  ; fai
000d30  901a              STR      r0,[sp,#0x68]
000d32  48f0              LDR      r0,|L1.4340|
000d34  6800              LDR      r0,[r0,#0]  ; fai
000d36  9019              STR      r0,[sp,#0x64]
000d38  991a              LDR      r1,[sp,#0x68]
000d3a  f7fffffe          BL       __aeabi_cfcmple
000d3e  d202              BCS      |L1.3398|
000d40  48ec              LDR      r0,|L1.4340|
000d42  6800              LDR      r0,[r0,#0]  ; fai
000d44  e011              B        |L1.3434|
                  |L1.3398|
000d46  48eb              LDR      r0,|L1.4340|
000d48  6840              LDR      r0,[r0,#4]  ; fai
000d4a  e00e              B        |L1.3434|
                  |L1.3404|
000d4c  48e9              LDR      r0,|L1.4340|
000d4e  6880              LDR      r0,[r0,#8]  ; fai
000d50  901a              STR      r0,[sp,#0x68]
000d52  48e8              LDR      r0,|L1.4340|
000d54  6840              LDR      r0,[r0,#4]  ; fai
000d56  9019              STR      r0,[sp,#0x64]
000d58  991a              LDR      r1,[sp,#0x68]
000d5a  f7fffffe          BL       __aeabi_cfcmple
000d5e  d202              BCS      |L1.3430|
000d60  48e4              LDR      r0,|L1.4340|
000d62  6840              LDR      r0,[r0,#4]  ; fai
000d64  e001              B        |L1.3434|
                  |L1.3430|
000d66  48e3              LDR      r0,|L1.4340|
000d68  6880              LDR      r0,[r0,#8]  ; fai
                  |L1.3434|
000d6a  901b              STR      r0,[sp,#0x6c]
000d6c  f7fffffe          BL       __aeabi_f2d
000d70  4ae1              LDR      r2,|L1.4344|
000d72  4be2              LDR      r3,|L1.4348|
000d74  e9cd011c          STRD     r0,r1,[sp,#0x70]
000d78  f7fffffe          BL       __aeabi_cdrcmple
000d7c  d232              BCS      |L1.3556|
;;;149    	{
;;;150    		fai[0]=fai[0]-2*PI;
000d7e  48dd              LDR      r0,|L1.4340|
000d80  6800              LDR      r0,[r0,#0]  ; fai
000d82  9019              STR      r0,[sp,#0x64]
000d84  f7fffffe          BL       __aeabi_f2d
000d88  4adb              LDR      r2,|L1.4344|
000d8a  4bdc              LDR      r3,|L1.4348|
000d8c  e9cd011a          STRD     r0,r1,[sp,#0x68]
000d90  f7fffffe          BL       __aeabi_dsub
000d94  e9cd011c          STRD     r0,r1,[sp,#0x70]
000d98  f7fffffe          BL       __aeabi_d2f
000d9c  49d5              LDR      r1,|L1.4340|
000d9e  6008              STR      r0,[r1,#0]  ; fai
;;;151    		fai[1]=fai[1]-2*PI;
000da0  4608              MOV      r0,r1
000da2  6840              LDR      r0,[r0,#4]  ; fai
000da4  9019              STR      r0,[sp,#0x64]
000da6  f7fffffe          BL       __aeabi_f2d
000daa  4ad3              LDR      r2,|L1.4344|
000dac  4bd3              LDR      r3,|L1.4348|
000dae  e9cd011a          STRD     r0,r1,[sp,#0x68]
000db2  f7fffffe          BL       __aeabi_dsub
000db6  e9cd011c          STRD     r0,r1,[sp,#0x70]
000dba  f7fffffe          BL       __aeabi_d2f
000dbe  49cd              LDR      r1,|L1.4340|
000dc0  6048              STR      r0,[r1,#4]  ; fai
;;;152    		fai[2]=fai[2]-2*PI;
000dc2  4608              MOV      r0,r1
000dc4  6880              LDR      r0,[r0,#8]  ; fai
000dc6  9019              STR      r0,[sp,#0x64]
000dc8  f7fffffe          BL       __aeabi_f2d
000dcc  4aca              LDR      r2,|L1.4344|
000dce  4bcb              LDR      r3,|L1.4348|
000dd0  e9cd011a          STRD     r0,r1,[sp,#0x68]
000dd4  f7fffffe          BL       __aeabi_dsub
000dd8  e9cd011c          STRD     r0,r1,[sp,#0x70]
000ddc  f7fffffe          BL       __aeabi_d2f
000de0  49c4              LDR      r1,|L1.4340|
000de2  6088              STR      r0,[r1,#8]  ; fai
                  |L1.3556|
;;;153    	}
;;;154    
;;;155    	dfai_previous[0]=dfai[0];
000de4  48c6              LDR      r0,|L1.4352|
000de6  6800              LDR      r0,[r0,#0]  ; dfai
000de8  49c6              LDR      r1,|L1.4356|
000dea  6008              STR      r0,[r1,#0]  ; dfai_previous
;;;156    	fai_previous[0]=fai[0];
000dec  48c1              LDR      r0,|L1.4340|
000dee  6800              LDR      r0,[r0,#0]  ; fai
000df0  49c5              LDR      r1,|L1.4360|
000df2  6008              STR      r0,[r1,#0]  ; fai_previous
;;;157    	dfai_previous[1]=dfai[1];
000df4  48c2              LDR      r0,|L1.4352|
000df6  6840              LDR      r0,[r0,#4]  ; dfai
000df8  49c2              LDR      r1,|L1.4356|
000dfa  6048              STR      r0,[r1,#4]  ; dfai_previous
;;;158    	fai_previous[1]=fai[1];
000dfc  48bd              LDR      r0,|L1.4340|
000dfe  6840              LDR      r0,[r0,#4]  ; fai
000e00  49c1              LDR      r1,|L1.4360|
000e02  6048              STR      r0,[r1,#4]  ; fai_previous
;;;159    	dfai_previous[2]=dfai[2];
000e04  48be              LDR      r0,|L1.4352|
000e06  6880              LDR      r0,[r0,#8]  ; dfai
000e08  49be              LDR      r1,|L1.4356|
000e0a  6088              STR      r0,[r1,#8]  ; dfai_previous
;;;160    	fai_previous[2]=fai[2];	
000e0c  48b9              LDR      r0,|L1.4340|
000e0e  6880              LDR      r0,[r0,#8]  ; fai
000e10  49bd              LDR      r1,|L1.4360|
000e12  6088              STR      r0,[r1,#8]  ; fai_previous
;;;161    	
;;;162    	vol[3]=theta[0];
000e14  48bd              LDR      r0,|L1.4364|
000e16  6800              LDR      r0,[r0,#0]  ; theta
000e18  49bd              LDR      r1,|L1.4368|
000e1a  60c8              STR      r0,[r1,#0xc]  ; vol
;;;163    	vol[4]=theta[1];
000e1c  48bb              LDR      r0,|L1.4364|
000e1e  6840              LDR      r0,[r0,#4]  ; theta
000e20  6108              STR      r0,[r1,#0x10]  ; vol
;;;164    	vol[5]=theta[2];
000e22  48ba              LDR      r0,|L1.4364|
000e24  6880              LDR      r0,[r0,#8]  ; theta
000e26  6148              STR      r0,[r1,#0x14]  ; vol
;;;165    }
000e28  b027              ADD      sp,sp,#0x9c
000e2a  bd00              POP      {pc}
;;;166    
                          ENDP

                  Pectoral_CPG_Calculate PROC
;;;196    
;;;197    void Pectoral_CPG_Calculate(void)
000e2c  b500              PUSH     {lr}
;;;198    {
000e2e  b0a1              SUB      sp,sp,#0x84
;;;199        float amp_pec[2];
;;;200        float offest_pec[2]; 
;;;201    
;;;202        amp_pec[0] = Pectoral_Amplitude[0] * 0.01745f;
000e30  48b8              LDR      r0,|L1.4372|
000e32  6800              LDR      r0,[r0,#0]  ; Pectoral_Amplitude
000e34  49b8              LDR      r1,|L1.4376|
000e36  901b              STR      r0,[sp,#0x6c]
000e38  f7fffffe          BL       __aeabi_fmul
000e3c  901e              STR      r0,[sp,#0x78]
;;;203        amp_pec[1] = Pectoral_Amplitude[1] * 0.01745f;
000e3e  48b5              LDR      r0,|L1.4372|
000e40  6840              LDR      r0,[r0,#4]  ; Pectoral_Amplitude
000e42  49b5              LDR      r1,|L1.4376|
000e44  901b              STR      r0,[sp,#0x6c]
000e46  f7fffffe          BL       __aeabi_fmul
000e4a  901f              STR      r0,[sp,#0x7c]
;;;204    
;;;205        offest_pec[0] = Pectoral_Dynamic_Offset[0] * 0.01745f;
000e4c  48b3              LDR      r0,|L1.4380|
000e4e  6800              LDR      r0,[r0,#0]  ; Pectoral_Dynamic_Offset
000e50  49b1              LDR      r1,|L1.4376|
000e52  901b              STR      r0,[sp,#0x6c]
000e54  f7fffffe          BL       __aeabi_fmul
000e58  901c              STR      r0,[sp,#0x70]
;;;206        offest_pec[1] = Pectoral_Dynamic_Offset[1] * 0.01745f;
000e5a  48b0              LDR      r0,|L1.4380|
000e5c  6840              LDR      r0,[r0,#4]  ; Pectoral_Dynamic_Offset
000e5e  49ae              LDR      r1,|L1.4376|
000e60  901b              STR      r0,[sp,#0x6c]
000e62  f7fffffe          BL       __aeabi_fmul
000e66  901d              STR      r0,[sp,#0x74]
;;;207           
;;;208        Pectoral_Log_Angle[0][1] = Pectoral_Phase_Dif * 0.01745f;
000e68  49ab              LDR      r1,|L1.4376|
000e6a  48ad              LDR      r0,|L1.4384|
000e6c  6800              LDR      r0,[r0,#0]  ; Pectoral_Phase_Dif
000e6e  f7fffffe          BL       __aeabi_fmul
000e72  49ac              LDR      r1,|L1.4388|
000e74  6048              STR      r0,[r1,#4]  ; Pectoral_Log_Angle
;;;209        Pectoral_Log_Angle[1][2] = -Pectoral_Log_Angle[0][1];
000e76  4608              MOV      r0,r1
000e78  6840              LDR      r0,[r0,#4]  ; Pectoral_Log_Angle
000e7a  f0804100          EOR      r1,r0,#0x80000000
000e7e  48a9              LDR      r0,|L1.4388|
000e80  6141              STR      r1,[r0,#0x14]
;;;210        Pectoral_Log_Angle[1][0] =  Pectoral_Log_Angle[1][2];
000e82  6940              LDR      r0,[r0,#0x14]
000e84  49a7              LDR      r1,|L1.4388|
000e86  60c8              STR      r0,[r1,#0xc]  ; Pectoral_Log_Angle
;;;211        Pectoral_Log_Angle[2][1] = -Pectoral_Log_Angle[1][0];
000e88  4608              MOV      r0,r1
000e8a  68c0              LDR      r0,[r0,#0xc]  ; Pectoral_Log_Angle
000e8c  f0804100          EOR      r1,r0,#0x80000000
000e90  48a4              LDR      r0,|L1.4388|
000e92  61c1              STR      r1,[r0,#0x1c]
;;;212    
;;;213        d_amp_present[0] = d_amp_previous[0] + T * ((-Gain_R^2) * (amp_previous[0] - amp_pec[0]) - 2 * Gain_R * d_amp_previous[0]);
000e94  48a4              LDR      r0,|L1.4392|
000e96  6800              LDR      r0,[r0,#0]  ; Gain_R
000e98  0040              LSLS     r0,r0,#1
000e9a  9016              STR      r0,[sp,#0x58]
000e9c  f7fffffe          BL       __aeabi_i2f
000ea0  9017              STR      r0,[sp,#0x5c]
000ea2  48a2              LDR      r0,|L1.4396|
000ea4  6800              LDR      r0,[r0,#0]  ; d_amp_previous
000ea6  4601              MOV      r1,r0
000ea8  9016              STR      r0,[sp,#0x58]
000eaa  9817              LDR      r0,[sp,#0x5c]
000eac  f7fffffe          BL       __aeabi_fmul
000eb0  9019              STR      r0,[sp,#0x64]
000eb2  981e              LDR      r0,[sp,#0x78]
000eb4  9015              STR      r0,[sp,#0x54]
000eb6  489e              LDR      r0,|L1.4400|
000eb8  6800              LDR      r0,[r0,#0]  ; amp_previous
000eba  9014              STR      r0,[sp,#0x50]
000ebc  9915              LDR      r1,[sp,#0x54]
000ebe  f7fffffe          BL       __aeabi_fsub
000ec2  9017              STR      r0,[sp,#0x5c]
000ec4  4898              LDR      r0,|L1.4392|
000ec6  6800              LDR      r0,[r0,#0]  ; Gain_R
000ec8  4240              RSBS     r0,r0,#0
000eca  f0800002          EOR      r0,r0,#2
000ece  9015              STR      r0,[sp,#0x54]
000ed0  f7fffffe          BL       __aeabi_i2f
000ed4  9016              STR      r0,[sp,#0x58]
000ed6  9917              LDR      r1,[sp,#0x5c]
000ed8  f7fffffe          BL       __aeabi_fmul
000edc  9018              STR      r0,[sp,#0x60]
000ede  9919              LDR      r1,[sp,#0x64]
000ee0  f7fffffe          BL       __aeabi_fsub
000ee4  901a              STR      r0,[sp,#0x68]
000ee6  4893              LDR      r0,|L1.4404|
000ee8  6801              LDR      r1,[r0,#0]  ; T
000eea  981a              LDR      r0,[sp,#0x68]
000eec  f7fffffe          BL       __aeabi_fmul
000ef0  901b              STR      r0,[sp,#0x6c]
000ef2  488e              LDR      r0,|L1.4396|
000ef4  6800              LDR      r0,[r0,#0]  ; d_amp_previous
000ef6  4601              MOV      r1,r0
000ef8  901a              STR      r0,[sp,#0x68]
000efa  981b              LDR      r0,[sp,#0x6c]
000efc  f7fffffe          BL       __aeabi_fadd
000f00  498d              LDR      r1,|L1.4408|
000f02  6008              STR      r0,[r1,#0]  ; d_amp_present
;;;214        amp_present[0] = amp_previous[0] + T * d_amp_present[0];
000f04  4608              MOV      r0,r1
000f06  6800              LDR      r0,[r0,#0]  ; d_amp_present
000f08  4601              MOV      r1,r0
000f0a  901a              STR      r0,[sp,#0x68]
000f0c  4889              LDR      r0,|L1.4404|
000f0e  6800              LDR      r0,[r0,#0]  ; T
000f10  f7fffffe          BL       __aeabi_fmul
000f14  901b              STR      r0,[sp,#0x6c]
000f16  4886              LDR      r0,|L1.4400|
000f18  6800              LDR      r0,[r0,#0]  ; amp_previous
000f1a  4601              MOV      r1,r0
000f1c  901a              STR      r0,[sp,#0x68]
000f1e  981b              LDR      r0,[sp,#0x6c]
000f20  f7fffffe          BL       __aeabi_fadd
000f24  4985              LDR      r1,|L1.4412|
000f26  6008              STR      r0,[r1,#0]  ; amp_present
;;;215        
;;;216        d_amp_present[1] = d_amp_previous[1] + T * ((-Gain_R^2) * (amp_previous[1] - amp_pec[1]) - 2 * Gain_R * d_amp_previous[1]);
000f28  487f              LDR      r0,|L1.4392|
000f2a  6800              LDR      r0,[r0,#0]  ; Gain_R
000f2c  0040              LSLS     r0,r0,#1
000f2e  9016              STR      r0,[sp,#0x58]
000f30  f7fffffe          BL       __aeabi_i2f
000f34  9017              STR      r0,[sp,#0x5c]
000f36  487d              LDR      r0,|L1.4396|
000f38  6840              LDR      r0,[r0,#4]  ; d_amp_previous
000f3a  4601              MOV      r1,r0
000f3c  9016              STR      r0,[sp,#0x58]
000f3e  9817              LDR      r0,[sp,#0x5c]
000f40  f7fffffe          BL       __aeabi_fmul
000f44  9019              STR      r0,[sp,#0x64]
000f46  981f              LDR      r0,[sp,#0x7c]
000f48  9015              STR      r0,[sp,#0x54]
000f4a  4879              LDR      r0,|L1.4400|
000f4c  6840              LDR      r0,[r0,#4]  ; amp_previous
000f4e  9014              STR      r0,[sp,#0x50]
000f50  9915              LDR      r1,[sp,#0x54]
000f52  f7fffffe          BL       __aeabi_fsub
000f56  9017              STR      r0,[sp,#0x5c]
000f58  4873              LDR      r0,|L1.4392|
000f5a  6800              LDR      r0,[r0,#0]  ; Gain_R
000f5c  4240              RSBS     r0,r0,#0
000f5e  f0800002          EOR      r0,r0,#2
000f62  9015              STR      r0,[sp,#0x54]
000f64  f7fffffe          BL       __aeabi_i2f
000f68  9016              STR      r0,[sp,#0x58]
000f6a  9917              LDR      r1,[sp,#0x5c]
000f6c  f7fffffe          BL       __aeabi_fmul
000f70  9018              STR      r0,[sp,#0x60]
000f72  9919              LDR      r1,[sp,#0x64]
000f74  f7fffffe          BL       __aeabi_fsub
000f78  901a              STR      r0,[sp,#0x68]
000f7a  486e              LDR      r0,|L1.4404|
000f7c  6801              LDR      r1,[r0,#0]  ; T
000f7e  981a              LDR      r0,[sp,#0x68]
000f80  f7fffffe          BL       __aeabi_fmul
000f84  901b              STR      r0,[sp,#0x6c]
000f86  4869              LDR      r0,|L1.4396|
000f88  6840              LDR      r0,[r0,#4]  ; d_amp_previous
000f8a  4601              MOV      r1,r0
000f8c  901a              STR      r0,[sp,#0x68]
000f8e  981b              LDR      r0,[sp,#0x6c]
000f90  f7fffffe          BL       __aeabi_fadd
000f94  4968              LDR      r1,|L1.4408|
000f96  6048              STR      r0,[r1,#4]  ; d_amp_present
;;;217        amp_present[1] = amp_previous[1] + T * d_amp_present[1];
000f98  4608              MOV      r0,r1
000f9a  6840              LDR      r0,[r0,#4]  ; d_amp_present
000f9c  4601              MOV      r1,r0
000f9e  901a              STR      r0,[sp,#0x68]
000fa0  4864              LDR      r0,|L1.4404|
000fa2  6800              LDR      r0,[r0,#0]  ; T
000fa4  f7fffffe          BL       __aeabi_fmul
000fa8  901b              STR      r0,[sp,#0x6c]
000faa  4861              LDR      r0,|L1.4400|
000fac  6840              LDR      r0,[r0,#4]  ; amp_previous
000fae  4601              MOV      r1,r0
000fb0  901a              STR      r0,[sp,#0x68]
000fb2  981b              LDR      r0,[sp,#0x6c]
000fb4  f7fffffe          BL       __aeabi_fadd
000fb8  4960              LDR      r1,|L1.4412|
000fba  6048              STR      r0,[r1,#4]  ; amp_present
;;;218        
;;;219        d_frq_present[0] = d_frq_previous[0] + T * ((-Gain_X^2) * (frq_previous[0] - offest_pec[0]) - 2 * Gain_X * d_frq_previous[0]);
000fbc  4860              LDR      r0,|L1.4416|
000fbe  6800              LDR      r0,[r0,#0]  ; Gain_X
000fc0  0040              LSLS     r0,r0,#1
000fc2  9016              STR      r0,[sp,#0x58]
000fc4  f7fffffe          BL       __aeabi_i2f
000fc8  9017              STR      r0,[sp,#0x5c]
000fca  485e              LDR      r0,|L1.4420|
000fcc  6800              LDR      r0,[r0,#0]  ; d_frq_previous
000fce  4601              MOV      r1,r0
000fd0  9016              STR      r0,[sp,#0x58]
000fd2  9817              LDR      r0,[sp,#0x5c]
000fd4  f7fffffe          BL       __aeabi_fmul
000fd8  9019              STR      r0,[sp,#0x64]
000fda  981c              LDR      r0,[sp,#0x70]
000fdc  9015              STR      r0,[sp,#0x54]
000fde  485a              LDR      r0,|L1.4424|
000fe0  6800              LDR      r0,[r0,#0]  ; frq_previous
000fe2  9014              STR      r0,[sp,#0x50]
000fe4  9915              LDR      r1,[sp,#0x54]
000fe6  f7fffffe          BL       __aeabi_fsub
000fea  9017              STR      r0,[sp,#0x5c]
000fec  4854              LDR      r0,|L1.4416|
000fee  6800              LDR      r0,[r0,#0]  ; Gain_X
000ff0  4240              RSBS     r0,r0,#0
000ff2  f0800002          EOR      r0,r0,#2
000ff6  9015              STR      r0,[sp,#0x54]
000ff8  f7fffffe          BL       __aeabi_i2f
000ffc  9016              STR      r0,[sp,#0x58]
000ffe  9917              LDR      r1,[sp,#0x5c]
001000  f7fffffe          BL       __aeabi_fmul
001004  9018              STR      r0,[sp,#0x60]
001006  9919              LDR      r1,[sp,#0x64]
001008  f7fffffe          BL       __aeabi_fsub
00100c  901a              STR      r0,[sp,#0x68]
00100e  4849              LDR      r0,|L1.4404|
001010  6801              LDR      r1,[r0,#0]  ; T
001012  981a              LDR      r0,[sp,#0x68]
001014  f7fffffe          BL       __aeabi_fmul
001018  901b              STR      r0,[sp,#0x6c]
00101a  484a              LDR      r0,|L1.4420|
00101c  6800              LDR      r0,[r0,#0]  ; d_frq_previous
00101e  4601              MOV      r1,r0
001020  901a              STR      r0,[sp,#0x68]
001022  981b              LDR      r0,[sp,#0x6c]
001024  f7fffffe          BL       __aeabi_fadd
001028  4948              LDR      r1,|L1.4428|
00102a  6008              STR      r0,[r1,#0]  ; d_frq_present
;;;220        frq_present[0] = frq_previous[0] + T * d_frq_present[0];
00102c  4608              MOV      r0,r1
00102e  6800              LDR      r0,[r0,#0]  ; d_frq_present
001030  4601              MOV      r1,r0
001032  901a              STR      r0,[sp,#0x68]
001034  483f              LDR      r0,|L1.4404|
001036  6800              LDR      r0,[r0,#0]  ; T
001038  f7fffffe          BL       __aeabi_fmul
00103c  901b              STR      r0,[sp,#0x6c]
00103e  4842              LDR      r0,|L1.4424|
001040  6800              LDR      r0,[r0,#0]  ; frq_previous
001042  4601              MOV      r1,r0
001044  901a              STR      r0,[sp,#0x68]
001046  981b              LDR      r0,[sp,#0x6c]
001048  f7fffffe          BL       __aeabi_fadd
00104c  4940              LDR      r1,|L1.4432|
00104e  6008              STR      r0,[r1,#0]  ; frq_present
;;;221        
;;;222        d_frq_present[1] = d_frq_previous[1] + T * ((-Gain_X^2) * (frq_previous[1] - offest_pec[1]) - 2 * Gain_X * d_frq_previous[1]);
001050  483b              LDR      r0,|L1.4416|
001052  6800              LDR      r0,[r0,#0]  ; Gain_X
001054  0040              LSLS     r0,r0,#1
001056  9016              STR      r0,[sp,#0x58]
001058  f7fffffe          BL       __aeabi_i2f
00105c  9017              STR      r0,[sp,#0x5c]
00105e  4839              LDR      r0,|L1.4420|
001060  6840              LDR      r0,[r0,#4]  ; d_frq_previous
001062  4601              MOV      r1,r0
001064  9016              STR      r0,[sp,#0x58]
001066  9817              LDR      r0,[sp,#0x5c]
001068  f7fffffe          BL       __aeabi_fmul
00106c  9019              STR      r0,[sp,#0x64]
00106e  981d              LDR      r0,[sp,#0x74]
001070  9015              STR      r0,[sp,#0x54]
001072  4835              LDR      r0,|L1.4424|
001074  6840              LDR      r0,[r0,#4]  ; frq_previous
001076  9014              STR      r0,[sp,#0x50]
001078  9915              LDR      r1,[sp,#0x54]
00107a  f7fffffe          BL       __aeabi_fsub
00107e  9017              STR      r0,[sp,#0x5c]
001080  482f              LDR      r0,|L1.4416|
001082  6800              LDR      r0,[r0,#0]  ; Gain_X
001084  4240              RSBS     r0,r0,#0
001086  f0800002          EOR      r0,r0,#2
00108a  9015              STR      r0,[sp,#0x54]
00108c  f7fffffe          BL       __aeabi_i2f
001090  9016              STR      r0,[sp,#0x58]
001092  9917              LDR      r1,[sp,#0x5c]
001094  f7fffffe          BL       __aeabi_fmul
001098  9018              STR      r0,[sp,#0x60]
00109a  9919              LDR      r1,[sp,#0x64]
00109c  f7fffffe          BL       __aeabi_fsub
0010a0  901a              STR      r0,[sp,#0x68]
0010a2  4824              LDR      r0,|L1.4404|
0010a4  6801              LDR      r1,[r0,#0]  ; T
0010a6  981a              LDR      r0,[sp,#0x68]
0010a8  f7fffffe          BL       __aeabi_fmul
0010ac  901b              STR      r0,[sp,#0x6c]
0010ae  4825              LDR      r0,|L1.4420|
0010b0  6840              LDR      r0,[r0,#4]  ; d_frq_previous
0010b2  4601              MOV      r1,r0
0010b4  901a              STR      r0,[sp,#0x68]
0010b6  981b              LDR      r0,[sp,#0x6c]
0010b8  f7fffffe          BL       __aeabi_fadd
0010bc  4923              LDR      r1,|L1.4428|
0010be  6048              STR      r0,[r1,#4]  ; d_frq_present
;;;223        frq_present[1] = frq_previous[1] + T * d_frq_present[1];
0010c0  4608              MOV      r0,r1
0010c2  6840              LDR      r0,[r0,#4]  ; d_frq_present
0010c4  4601              MOV      r1,r0
0010c6  901a              STR      r0,[sp,#0x68]
0010c8  481a              LDR      r0,|L1.4404|
0010ca  6800              LDR      r0,[r0,#0]  ; T
0010cc  f7fffffe          BL       __aeabi_fmul
0010d0  901b              STR      r0,[sp,#0x6c]
0010d2  481d              LDR      r0,|L1.4424|
0010d4  6840              LDR      r0,[r0,#4]  ; frq_previous
0010d6  4601              MOV      r1,r0
0010d8  901a              STR      r0,[sp,#0x68]
0010da  981b              LDR      r0,[sp,#0x6c]
0010dc  f7fffffe          BL       __aeabi_fadd
0010e0  491b              LDR      r1,|L1.4432|
0010e2  6048              STR      r0,[r1,#4]  ; frq_present
;;;224        
;;;225    	d_phi_present[0]=d_phi_previous[0]+T*(Pectoral_Coupling_Weight[0][1]*Pectoral_Coupling_Weight[0][1]*(phi_previous[1]-phi_previous[0]-Pectoral_Log_Angle[0][1])-2*(Pectoral_Coupling_Weight[0][1]+Pectoral_Coupling_Weight[0][2])*(d_phi_previous[0]-2*PI*Pectoral_Volcety)+Pectoral_Coupling_Weight[0][2]*Pectoral_Coupling_Weight[0][2]*(phi_previous[2]-phi_previous[0]-Pectoral_Log_Angle[0][2]));
0010e4  481b              LDR      r0,|L1.4436|
0010e6  6800              LDR      r0,[r0,#0]  ; phi_previous
0010e8  9009              STR      r0,[sp,#0x24]
0010ea  481a              LDR      r0,|L1.4436|
0010ec  6880              LDR      r0,[r0,#8]  ; phi_previous
0010ee  9008              STR      r0,[sp,#0x20]
0010f0  9909              LDR      r1,[sp,#0x24]
0010f2  e031              B        |L1.4440|
                  |L1.4340|
                          DCD      ||fai||
                  |L1.4344|
                          DCD      0xf01b866e
                  |L1.4348|
                          DCD      0x401921f9
                  |L1.4352|
                          DCD      dfai
                  |L1.4356|
                          DCD      dfai_previous
                  |L1.4360|
                          DCD      fai_previous
                  |L1.4364|
                          DCD      theta
                  |L1.4368|
                          DCD      vol
                  |L1.4372|
                          DCD      Pectoral_Amplitude
                  |L1.4376|
                          DCD      0x3c8ef34d
                  |L1.4380|
                          DCD      Pectoral_Dynamic_Offset
                  |L1.4384|
                          DCD      Pectoral_Phase_Dif
                  |L1.4388|
                          DCD      Pectoral_Log_Angle
                  |L1.4392|
                          DCD      Gain_R
                  |L1.4396|
                          DCD      d_amp_previous
                  |L1.4400|
                          DCD      amp_previous
                  |L1.4404|
                          DCD      T
                  |L1.4408|
                          DCD      d_amp_present
                  |L1.4412|
                          DCD      amp_present
                  |L1.4416|
                          DCD      Gain_X
                  |L1.4420|
                          DCD      d_frq_previous
                  |L1.4424|
                          DCD      frq_previous
                  |L1.4428|
                          DCD      d_frq_present
                  |L1.4432|
                          DCD      frq_present
                  |L1.4436|
                          DCD      phi_previous
                  |L1.4440|
001158  f7fffffe          BL       __aeabi_fsub
00115c  900a              STR      r0,[sp,#0x28]
00115e  48fe              LDR      r0,|L1.5464|
001160  6880              LDR      r0,[r0,#8]  ; Pectoral_Log_Angle
001162  4601              MOV      r1,r0
001164  9009              STR      r0,[sp,#0x24]
001166  980a              LDR      r0,[sp,#0x28]
001168  f7fffffe          BL       __aeabi_fsub
00116c  900c              STR      r0,[sp,#0x30]
00116e  48fb              LDR      r0,|L1.5468|
001170  6880              LDR      r0,[r0,#8]  ; Pectoral_Coupling_Weight
001172  900a              STR      r0,[sp,#0x28]
001174  48f9              LDR      r0,|L1.5468|
001176  6880              LDR      r0,[r0,#8]  ; Pectoral_Coupling_Weight
001178  9009              STR      r0,[sp,#0x24]
00117a  990a              LDR      r1,[sp,#0x28]
00117c  f7fffffe          BL       __aeabi_fmul
001180  900b              STR      r0,[sp,#0x2c]
001182  990c              LDR      r1,[sp,#0x30]
001184  f7fffffe          BL       __aeabi_fmul
001188  900d              STR      r0,[sp,#0x34]
00118a  f7fffffe          BL       __aeabi_f2d
00118e  e9cd0110          STRD     r0,r1,[sp,#0x40]
001192  48f3              LDR      r0,|L1.5472|
001194  6800              LDR      r0,[r0,#0]  ; Pectoral_Volcety
001196  f7fffffe          BL       __aeabi_f2d
00119a  4af2              LDR      r2,|L1.5476|
00119c  4bf2              LDR      r3,|L1.5480|
00119e  e9cd0100          STRD     r0,r1,[sp,#0]
0011a2  f7fffffe          BL       __aeabi_dmul
0011a6  e9cd0104          STRD     r0,r1,[sp,#0x10]
0011aa  48f0              LDR      r0,|L1.5484|
0011ac  6800              LDR      r0,[r0,#0]  ; d_phi_previous
0011ae  9001              STR      r0,[sp,#4]
0011b0  f7fffffe          BL       __aeabi_f2d
0011b4  e9cd0102          STRD     r0,r1,[sp,#8]
0011b8  e9dd2304          LDRD     r2,r3,[sp,#0x10]
0011bc  f7fffffe          BL       __aeabi_dsub
0011c0  e9cd0108          STRD     r0,r1,[sp,#0x20]
0011c4  48e5              LDR      r0,|L1.5468|
0011c6  6880              LDR      r0,[r0,#8]  ; Pectoral_Coupling_Weight
0011c8  9003              STR      r0,[sp,#0xc]
0011ca  48e4              LDR      r0,|L1.5468|
0011cc  6840              LDR      r0,[r0,#4]  ; Pectoral_Coupling_Weight
0011ce  9002              STR      r0,[sp,#8]
0011d0  9903              LDR      r1,[sp,#0xc]
0011d2  f7fffffe          BL       __aeabi_fadd
0011d6  f04f4180          MOV      r1,#0x40000000
0011da  9004              STR      r0,[sp,#0x10]
0011dc  f7fffffe          BL       __aeabi_fmul
0011e0  9005              STR      r0,[sp,#0x14]
0011e2  f7fffffe          BL       __aeabi_f2d
0011e6  e9cd0106          STRD     r0,r1,[sp,#0x18]
0011ea  e9dd2308          LDRD     r2,r3,[sp,#0x20]
0011ee  f7fffffe          BL       __aeabi_dmul
0011f2  e9cd010c          STRD     r0,r1,[sp,#0x30]
0011f6  48de              LDR      r0,|L1.5488|
0011f8  6800              LDR      r0,[r0,#0]  ; phi_previous
0011fa  9005              STR      r0,[sp,#0x14]
0011fc  48dc              LDR      r0,|L1.5488|
0011fe  6840              LDR      r0,[r0,#4]  ; phi_previous
001200  9004              STR      r0,[sp,#0x10]
001202  9905              LDR      r1,[sp,#0x14]
001204  f7fffffe          BL       __aeabi_fsub
001208  9006              STR      r0,[sp,#0x18]
00120a  48d3              LDR      r0,|L1.5464|
00120c  6840              LDR      r0,[r0,#4]  ; Pectoral_Log_Angle
00120e  4601              MOV      r1,r0
001210  9005              STR      r0,[sp,#0x14]
001212  9806              LDR      r0,[sp,#0x18]
001214  f7fffffe          BL       __aeabi_fsub
001218  9008              STR      r0,[sp,#0x20]
00121a  48d0              LDR      r0,|L1.5468|
00121c  6840              LDR      r0,[r0,#4]  ; Pectoral_Coupling_Weight
00121e  9006              STR      r0,[sp,#0x18]
001220  48ce              LDR      r0,|L1.5468|
001222  6840              LDR      r0,[r0,#4]  ; Pectoral_Coupling_Weight
001224  9005              STR      r0,[sp,#0x14]
001226  9906              LDR      r1,[sp,#0x18]
001228  f7fffffe          BL       __aeabi_fmul
00122c  9007              STR      r0,[sp,#0x1c]
00122e  9908              LDR      r1,[sp,#0x20]
001230  f7fffffe          BL       __aeabi_fmul
001234  9009              STR      r0,[sp,#0x24]
001236  f7fffffe          BL       __aeabi_f2d
00123a  e9cd010a          STRD     r0,r1,[sp,#0x28]
00123e  e9dd230c          LDRD     r2,r3,[sp,#0x30]
001242  f7fffffe          BL       __aeabi_dsub
001246  e9cd010e          STRD     r0,r1,[sp,#0x38]
00124a  e9dd2310          LDRD     r2,r3,[sp,#0x40]
00124e  f7fffffe          BL       __aeabi_dadd
001252  e9cd0114          STRD     r0,r1,[sp,#0x50]
001256  48c7              LDR      r0,|L1.5492|
001258  6800              LDR      r0,[r0,#0]  ; T
00125a  f7fffffe          BL       __aeabi_f2d
00125e  e9cd0112          STRD     r0,r1,[sp,#0x48]
001262  e9dd2314          LDRD     r2,r3,[sp,#0x50]
001266  f7fffffe          BL       __aeabi_dmul
00126a  e9cd0118          STRD     r0,r1,[sp,#0x60]
00126e  48bf              LDR      r0,|L1.5484|
001270  6800              LDR      r0,[r0,#0]  ; d_phi_previous
001272  9015              STR      r0,[sp,#0x54]
001274  f7fffffe          BL       __aeabi_f2d
001278  e9cd0116          STRD     r0,r1,[sp,#0x58]
00127c  e9dd2318          LDRD     r2,r3,[sp,#0x60]
001280  f7fffffe          BL       __aeabi_dadd
001284  e9cd011a          STRD     r0,r1,[sp,#0x68]
001288  f7fffffe          BL       __aeabi_d2f
00128c  49ba              LDR      r1,|L1.5496|
00128e  6008              STR      r0,[r1,#0]  ; d_phi_present
;;;226    	phi_present[0]=phi_previous[0]+T*d_phi_present[0];
001290  4608              MOV      r0,r1
001292  6800              LDR      r0,[r0,#0]  ; d_phi_present
001294  4601              MOV      r1,r0
001296  901a              STR      r0,[sp,#0x68]
001298  48b6              LDR      r0,|L1.5492|
00129a  6800              LDR      r0,[r0,#0]  ; T
00129c  f7fffffe          BL       __aeabi_fmul
0012a0  901b              STR      r0,[sp,#0x6c]
0012a2  48b3              LDR      r0,|L1.5488|
0012a4  6800              LDR      r0,[r0,#0]  ; phi_previous
0012a6  4601              MOV      r1,r0
0012a8  901a              STR      r0,[sp,#0x68]
0012aa  981b              LDR      r0,[sp,#0x6c]
0012ac  f7fffffe          BL       __aeabi_fadd
0012b0  49b2              LDR      r1,|L1.5500|
0012b2  6008              STR      r0,[r1,#0]  ; phi_present
;;;227        
;;;228    	d_phi_present[1]=d_phi_previous[1]+T*(Pectoral_Coupling_Weight[1][0]*Pectoral_Coupling_Weight[1][0]*(phi_previous[0]-phi_previous[1]-Pectoral_Log_Angle[1][0])-2*(Pectoral_Coupling_Weight[1][0]+Pectoral_Coupling_Weight[1][2])*(d_phi_previous[1]-2*PI*Pectoral_Volcety)+Pectoral_Coupling_Weight[1][2]*Pectoral_Coupling_Weight[1][2]*(phi_previous[2]-phi_previous[1]-Pectoral_Log_Angle[1][2]));
0012b4  48ae              LDR      r0,|L1.5488|
0012b6  6840              LDR      r0,[r0,#4]  ; phi_previous
0012b8  9009              STR      r0,[sp,#0x24]
0012ba  48ad              LDR      r0,|L1.5488|
0012bc  6880              LDR      r0,[r0,#8]  ; phi_previous
0012be  9008              STR      r0,[sp,#0x20]
0012c0  9909              LDR      r1,[sp,#0x24]
0012c2  f7fffffe          BL       __aeabi_fsub
0012c6  900a              STR      r0,[sp,#0x28]
0012c8  48a3              LDR      r0,|L1.5464|
0012ca  6940              LDR      r0,[r0,#0x14]
0012cc  4601              MOV      r1,r0
0012ce  9009              STR      r0,[sp,#0x24]
0012d0  980a              LDR      r0,[sp,#0x28]
0012d2  f7fffffe          BL       __aeabi_fsub
0012d6  900c              STR      r0,[sp,#0x30]
0012d8  48a0              LDR      r0,|L1.5468|
0012da  6940              LDR      r0,[r0,#0x14]
0012dc  900a              STR      r0,[sp,#0x28]
0012de  489f              LDR      r0,|L1.5468|
0012e0  6940              LDR      r0,[r0,#0x14]
0012e2  9009              STR      r0,[sp,#0x24]
0012e4  990a              LDR      r1,[sp,#0x28]
0012e6  f7fffffe          BL       __aeabi_fmul
0012ea  900b              STR      r0,[sp,#0x2c]
0012ec  990c              LDR      r1,[sp,#0x30]
0012ee  f7fffffe          BL       __aeabi_fmul
0012f2  900d              STR      r0,[sp,#0x34]
0012f4  f7fffffe          BL       __aeabi_f2d
0012f8  e9cd0110          STRD     r0,r1,[sp,#0x40]
0012fc  4898              LDR      r0,|L1.5472|
0012fe  6800              LDR      r0,[r0,#0]  ; Pectoral_Volcety
001300  f7fffffe          BL       __aeabi_f2d
001304  4a97              LDR      r2,|L1.5476|
001306  4b98              LDR      r3,|L1.5480|
001308  e9cd0100          STRD     r0,r1,[sp,#0]
00130c  f7fffffe          BL       __aeabi_dmul
001310  e9cd0104          STRD     r0,r1,[sp,#0x10]
001314  4895              LDR      r0,|L1.5484|
001316  6840              LDR      r0,[r0,#4]  ; d_phi_previous
001318  9001              STR      r0,[sp,#4]
00131a  f7fffffe          BL       __aeabi_f2d
00131e  e9cd0102          STRD     r0,r1,[sp,#8]
001322  e9dd2304          LDRD     r2,r3,[sp,#0x10]
001326  f7fffffe          BL       __aeabi_dsub
00132a  e9cd0108          STRD     r0,r1,[sp,#0x20]
00132e  488b              LDR      r0,|L1.5468|
001330  6940              LDR      r0,[r0,#0x14]
001332  9003              STR      r0,[sp,#0xc]
001334  4889              LDR      r0,|L1.5468|
001336  68c0              LDR      r0,[r0,#0xc]  ; Pectoral_Coupling_Weight
001338  9002              STR      r0,[sp,#8]
00133a  9903              LDR      r1,[sp,#0xc]
00133c  f7fffffe          BL       __aeabi_fadd
001340  f04f4180          MOV      r1,#0x40000000
001344  9004              STR      r0,[sp,#0x10]
001346  f7fffffe          BL       __aeabi_fmul
00134a  9005              STR      r0,[sp,#0x14]
00134c  f7fffffe          BL       __aeabi_f2d
001350  e9cd0106          STRD     r0,r1,[sp,#0x18]
001354  e9dd2308          LDRD     r2,r3,[sp,#0x20]
001358  f7fffffe          BL       __aeabi_dmul
00135c  e9cd010c          STRD     r0,r1,[sp,#0x30]
001360  4883              LDR      r0,|L1.5488|
001362  6840              LDR      r0,[r0,#4]  ; phi_previous
001364  9005              STR      r0,[sp,#0x14]
001366  4882              LDR      r0,|L1.5488|
001368  6800              LDR      r0,[r0,#0]  ; phi_previous
00136a  9004              STR      r0,[sp,#0x10]
00136c  9905              LDR      r1,[sp,#0x14]
00136e  f7fffffe          BL       __aeabi_fsub
001372  9006              STR      r0,[sp,#0x18]
001374  4878              LDR      r0,|L1.5464|
001376  68c0              LDR      r0,[r0,#0xc]  ; Pectoral_Log_Angle
001378  4601              MOV      r1,r0
00137a  9005              STR      r0,[sp,#0x14]
00137c  9806              LDR      r0,[sp,#0x18]
00137e  f7fffffe          BL       __aeabi_fsub
001382  9008              STR      r0,[sp,#0x20]
001384  4875              LDR      r0,|L1.5468|
001386  68c0              LDR      r0,[r0,#0xc]  ; Pectoral_Coupling_Weight
001388  9006              STR      r0,[sp,#0x18]
00138a  4874              LDR      r0,|L1.5468|
00138c  68c0              LDR      r0,[r0,#0xc]  ; Pectoral_Coupling_Weight
00138e  9005              STR      r0,[sp,#0x14]
001390  9906              LDR      r1,[sp,#0x18]
001392  f7fffffe          BL       __aeabi_fmul
001396  9007              STR      r0,[sp,#0x1c]
001398  9908              LDR      r1,[sp,#0x20]
00139a  f7fffffe          BL       __aeabi_fmul
00139e  9009              STR      r0,[sp,#0x24]
0013a0  f7fffffe          BL       __aeabi_f2d
0013a4  e9cd010a          STRD     r0,r1,[sp,#0x28]
0013a8  e9dd230c          LDRD     r2,r3,[sp,#0x30]
0013ac  f7fffffe          BL       __aeabi_dsub
0013b0  e9cd010e          STRD     r0,r1,[sp,#0x38]
0013b4  e9dd2310          LDRD     r2,r3,[sp,#0x40]
0013b8  f7fffffe          BL       __aeabi_dadd
0013bc  e9cd0114          STRD     r0,r1,[sp,#0x50]
0013c0  486c              LDR      r0,|L1.5492|
0013c2  6800              LDR      r0,[r0,#0]  ; T
0013c4  f7fffffe          BL       __aeabi_f2d
0013c8  e9cd0112          STRD     r0,r1,[sp,#0x48]
0013cc  e9dd2314          LDRD     r2,r3,[sp,#0x50]
0013d0  f7fffffe          BL       __aeabi_dmul
0013d4  e9cd0118          STRD     r0,r1,[sp,#0x60]
0013d8  4864              LDR      r0,|L1.5484|
0013da  6840              LDR      r0,[r0,#4]  ; d_phi_previous
0013dc  9015              STR      r0,[sp,#0x54]
0013de  f7fffffe          BL       __aeabi_f2d
0013e2  e9cd0116          STRD     r0,r1,[sp,#0x58]
0013e6  e9dd2318          LDRD     r2,r3,[sp,#0x60]
0013ea  f7fffffe          BL       __aeabi_dadd
0013ee  e9cd011a          STRD     r0,r1,[sp,#0x68]
0013f2  f7fffffe          BL       __aeabi_d2f
0013f6  4960              LDR      r1,|L1.5496|
0013f8  6048              STR      r0,[r1,#4]  ; d_phi_present
;;;229    	phi_present[1]=phi_previous[1]+T*d_phi_present[1];
0013fa  4608              MOV      r0,r1
0013fc  6840              LDR      r0,[r0,#4]  ; d_phi_present
0013fe  4601              MOV      r1,r0
001400  901a              STR      r0,[sp,#0x68]
001402  485c              LDR      r0,|L1.5492|
001404  6800              LDR      r0,[r0,#0]  ; T
001406  f7fffffe          BL       __aeabi_fmul
00140a  901b              STR      r0,[sp,#0x6c]
00140c  4858              LDR      r0,|L1.5488|
00140e  6840              LDR      r0,[r0,#4]  ; phi_previous
001410  4601              MOV      r1,r0
001412  901a              STR      r0,[sp,#0x68]
001414  981b              LDR      r0,[sp,#0x6c]
001416  f7fffffe          BL       __aeabi_fadd
00141a  4958              LDR      r1,|L1.5500|
00141c  6048              STR      r0,[r1,#4]  ; phi_present
;;;230        
;;;231    	d_phi_present[2]=d_phi_previous[2]+T*(Pectoral_Coupling_Weight[2][0]*Pectoral_Coupling_Weight[2][0]*(phi_previous[0]-phi_previous[2]-Pectoral_Log_Angle[2][0])-2*(Pectoral_Coupling_Weight[2][0]+Pectoral_Coupling_Weight[2][1])*(d_phi_previous[2]-2*PI*Pectoral_Volcety)+Pectoral_Coupling_Weight[2][1]*Pectoral_Coupling_Weight[2][1]*(phi_previous[1]-phi_previous[2]-Pectoral_Log_Angle[2][1]));
00141e  4854              LDR      r0,|L1.5488|
001420  6880              LDR      r0,[r0,#8]  ; phi_previous
001422  9009              STR      r0,[sp,#0x24]
001424  4852              LDR      r0,|L1.5488|
001426  6840              LDR      r0,[r0,#4]  ; phi_previous
001428  9008              STR      r0,[sp,#0x20]
00142a  9909              LDR      r1,[sp,#0x24]
00142c  f7fffffe          BL       __aeabi_fsub
001430  900a              STR      r0,[sp,#0x28]
001432  4849              LDR      r0,|L1.5464|
001434  69c0              LDR      r0,[r0,#0x1c]
001436  4601              MOV      r1,r0
001438  9009              STR      r0,[sp,#0x24]
00143a  980a              LDR      r0,[sp,#0x28]
00143c  f7fffffe          BL       __aeabi_fsub
001440  900c              STR      r0,[sp,#0x30]
001442  4846              LDR      r0,|L1.5468|
001444  69c0              LDR      r0,[r0,#0x1c]
001446  900a              STR      r0,[sp,#0x28]
001448  4844              LDR      r0,|L1.5468|
00144a  69c0              LDR      r0,[r0,#0x1c]
00144c  9009              STR      r0,[sp,#0x24]
00144e  990a              LDR      r1,[sp,#0x28]
001450  f7fffffe          BL       __aeabi_fmul
001454  900b              STR      r0,[sp,#0x2c]
001456  990c              LDR      r1,[sp,#0x30]
001458  f7fffffe          BL       __aeabi_fmul
00145c  900d              STR      r0,[sp,#0x34]
00145e  f7fffffe          BL       __aeabi_f2d
001462  e9cd0110          STRD     r0,r1,[sp,#0x40]
001466  483e              LDR      r0,|L1.5472|
001468  6800              LDR      r0,[r0,#0]  ; Pectoral_Volcety
00146a  f7fffffe          BL       __aeabi_f2d
00146e  4a3d              LDR      r2,|L1.5476|
001470  4b3d              LDR      r3,|L1.5480|
001472  e9cd0100          STRD     r0,r1,[sp,#0]
001476  f7fffffe          BL       __aeabi_dmul
00147a  e9cd0104          STRD     r0,r1,[sp,#0x10]
00147e  483b              LDR      r0,|L1.5484|
001480  6880              LDR      r0,[r0,#8]  ; d_phi_previous
001482  9001              STR      r0,[sp,#4]
001484  f7fffffe          BL       __aeabi_f2d
001488  e9cd0102          STRD     r0,r1,[sp,#8]
00148c  e9dd2304          LDRD     r2,r3,[sp,#0x10]
001490  f7fffffe          BL       __aeabi_dsub
001494  e9cd0108          STRD     r0,r1,[sp,#0x20]
001498  4830              LDR      r0,|L1.5468|
00149a  69c0              LDR      r0,[r0,#0x1c]
00149c  9003              STR      r0,[sp,#0xc]
00149e  482f              LDR      r0,|L1.5468|
0014a0  6980              LDR      r0,[r0,#0x18]  ; Pectoral_Coupling_Weight
0014a2  9002              STR      r0,[sp,#8]
0014a4  9903              LDR      r1,[sp,#0xc]
0014a6  f7fffffe          BL       __aeabi_fadd
0014aa  f04f4180          MOV      r1,#0x40000000
0014ae  9004              STR      r0,[sp,#0x10]
0014b0  f7fffffe          BL       __aeabi_fmul
0014b4  9005              STR      r0,[sp,#0x14]
0014b6  f7fffffe          BL       __aeabi_f2d
0014ba  e9cd0106          STRD     r0,r1,[sp,#0x18]
0014be  e9dd2308          LDRD     r2,r3,[sp,#0x20]
0014c2  f7fffffe          BL       __aeabi_dmul
0014c6  e9cd010c          STRD     r0,r1,[sp,#0x30]
0014ca  4829              LDR      r0,|L1.5488|
0014cc  6880              LDR      r0,[r0,#8]  ; phi_previous
0014ce  9005              STR      r0,[sp,#0x14]
0014d0  4827              LDR      r0,|L1.5488|
0014d2  6800              LDR      r0,[r0,#0]  ; phi_previous
0014d4  9004              STR      r0,[sp,#0x10]
0014d6  9905              LDR      r1,[sp,#0x14]
0014d8  f7fffffe          BL       __aeabi_fsub
0014dc  9006              STR      r0,[sp,#0x18]
0014de  481e              LDR      r0,|L1.5464|
0014e0  6980              LDR      r0,[r0,#0x18]  ; Pectoral_Log_Angle
0014e2  4601              MOV      r1,r0
0014e4  9005              STR      r0,[sp,#0x14]
0014e6  9806              LDR      r0,[sp,#0x18]
0014e8  f7fffffe          BL       __aeabi_fsub
0014ec  9008              STR      r0,[sp,#0x20]
0014ee  481b              LDR      r0,|L1.5468|
0014f0  6980              LDR      r0,[r0,#0x18]  ; Pectoral_Coupling_Weight
0014f2  9006              STR      r0,[sp,#0x18]
0014f4  4819              LDR      r0,|L1.5468|
0014f6  6980              LDR      r0,[r0,#0x18]  ; Pectoral_Coupling_Weight
0014f8  9005              STR      r0,[sp,#0x14]
0014fa  9906              LDR      r1,[sp,#0x18]
0014fc  f7fffffe          BL       __aeabi_fmul
001500  9007              STR      r0,[sp,#0x1c]
001502  9908              LDR      r1,[sp,#0x20]
001504  f7fffffe          BL       __aeabi_fmul
001508  9009              STR      r0,[sp,#0x24]
00150a  f7fffffe          BL       __aeabi_f2d
00150e  e9cd010a          STRD     r0,r1,[sp,#0x28]
001512  e9dd230c          LDRD     r2,r3,[sp,#0x30]
001516  f7fffffe          BL       __aeabi_dsub
00151a  e9cd010e          STRD     r0,r1,[sp,#0x38]
00151e  e9dd2310          LDRD     r2,r3,[sp,#0x40]
001522  f7fffffe          BL       __aeabi_dadd
001526  e9cd0114          STRD     r0,r1,[sp,#0x50]
00152a  4812              LDR      r0,|L1.5492|
00152c  6800              LDR      r0,[r0,#0]  ; T
00152e  f7fffffe          BL       __aeabi_f2d
001532  e9cd0112          STRD     r0,r1,[sp,#0x48]
001536  e9dd2314          LDRD     r2,r3,[sp,#0x50]
00153a  f7fffffe          BL       __aeabi_dmul
00153e  e9cd0118          STRD     r0,r1,[sp,#0x60]
001542  480a              LDR      r0,|L1.5484|
001544  6880              LDR      r0,[r0,#8]  ; d_phi_previous
001546  9015              STR      r0,[sp,#0x54]
001548  f7fffffe          BL       __aeabi_f2d
00154c  e9cd0116          STRD     r0,r1,[sp,#0x58]
001550  e9dd2318          LDRD     r2,r3,[sp,#0x60]
001554  e014              B        |L1.5504|
001556  0000              DCW      0x0000
                  |L1.5464|
                          DCD      Pectoral_Log_Angle
                  |L1.5468|
                          DCD      Pectoral_Coupling_Weight
                  |L1.5472|
                          DCD      Pectoral_Volcety
                  |L1.5476|
                          DCD      0xf01b866e
                  |L1.5480|
                          DCD      0x401921f9
                  |L1.5484|
                          DCD      d_phi_previous
                  |L1.5488|
                          DCD      phi_previous
                  |L1.5492|
                          DCD      T
                  |L1.5496|
                          DCD      d_phi_present
                  |L1.5500|
                          DCD      phi_present
                  |L1.5504|
001580  f7fffffe          BL       __aeabi_dadd
001584  e9cd011a          STRD     r0,r1,[sp,#0x68]
001588  f7fffffe          BL       __aeabi_d2f
00158c  49fe              LDR      r1,|L1.6536|
00158e  6088              STR      r0,[r1,#8]  ; d_phi_present
;;;232    	phi_present[2]=phi_previous[2]+T*d_phi_present[2];
001590  4608              MOV      r0,r1
001592  6880              LDR      r0,[r0,#8]  ; d_phi_present
001594  4601              MOV      r1,r0
001596  901a              STR      r0,[sp,#0x68]
001598  48fc              LDR      r0,|L1.6540|
00159a  6800              LDR      r0,[r0,#0]  ; T
00159c  f7fffffe          BL       __aeabi_fmul
0015a0  901b              STR      r0,[sp,#0x6c]
0015a2  48fb              LDR      r0,|L1.6544|
0015a4  6880              LDR      r0,[r0,#8]  ; phi_previous
0015a6  4601              MOV      r1,r0
0015a8  901a              STR      r0,[sp,#0x68]
0015aa  981b              LDR      r0,[sp,#0x6c]
0015ac  f7fffffe          BL       __aeabi_fadd
0015b0  49f8              LDR      r1,|L1.6548|
0015b2  6088              STR      r0,[r1,#8]  ; phi_present
;;;233        
;;;234        /* 胸鳍输出弧度 */
;;;235    	Pectoral_Theta[0]=frq_present[0]+amp_present[0]*TaylorSin(phi_present[0]);  
0015b4  4608              MOV      r0,r1
0015b6  6800              LDR      r0,[r0,#0]  ; phi_present
0015b8  9019              STR      r0,[sp,#0x64]
0015ba  f7fffffe          BL       TaylorSin
0015be  901a              STR      r0,[sp,#0x68]
0015c0  48f5              LDR      r0,|L1.6552|
0015c2  6800              LDR      r0,[r0,#0]  ; amp_present
0015c4  4601              MOV      r1,r0
0015c6  9019              STR      r0,[sp,#0x64]
0015c8  981a              LDR      r0,[sp,#0x68]
0015ca  f7fffffe          BL       __aeabi_fmul
0015ce  901b              STR      r0,[sp,#0x6c]
0015d0  48f2              LDR      r0,|L1.6556|
0015d2  6800              LDR      r0,[r0,#0]  ; frq_present
0015d4  4601              MOV      r1,r0
0015d6  901a              STR      r0,[sp,#0x68]
0015d8  981b              LDR      r0,[sp,#0x6c]
0015da  f7fffffe          BL       __aeabi_fadd
0015de  49f0              LDR      r1,|L1.6560|
0015e0  6008              STR      r0,[r1,#0]  ; Pectoral_Theta
;;;236    	Pectoral_Theta[1]=frq_present[1]+amp_present[1]*TaylorSin(phi_present[1]);
0015e2  48ec              LDR      r0,|L1.6548|
0015e4  6840              LDR      r0,[r0,#4]  ; phi_present
0015e6  9019              STR      r0,[sp,#0x64]
0015e8  f7fffffe          BL       TaylorSin
0015ec  901a              STR      r0,[sp,#0x68]
0015ee  48ea              LDR      r0,|L1.6552|
0015f0  6840              LDR      r0,[r0,#4]  ; amp_present
0015f2  4601              MOV      r1,r0
0015f4  9019              STR      r0,[sp,#0x64]
0015f6  981a              LDR      r0,[sp,#0x68]
0015f8  f7fffffe          BL       __aeabi_fmul
0015fc  901b              STR      r0,[sp,#0x6c]
0015fe  48e7              LDR      r0,|L1.6556|
001600  6840              LDR      r0,[r0,#4]  ; frq_present
001602  4601              MOV      r1,r0
001604  901a              STR      r0,[sp,#0x68]
001606  981b              LDR      r0,[sp,#0x6c]
001608  f7fffffe          BL       __aeabi_fadd
00160c  49e4              LDR      r1,|L1.6560|
00160e  6048              STR      r0,[r1,#4]  ; Pectoral_Theta
;;;237    	
;;;238    	d_amp_previous[0] = d_amp_present[0];
001610  48e4              LDR      r0,|L1.6564|
001612  6800              LDR      r0,[r0,#0]  ; d_amp_present
001614  49e4              LDR      r1,|L1.6568|
001616  6008              STR      r0,[r1,#0]  ; d_amp_previous
;;;239    	amp_previous[0] = amp_present[0];
001618  48df              LDR      r0,|L1.6552|
00161a  6800              LDR      r0,[r0,#0]  ; amp_present
00161c  49e3              LDR      r1,|L1.6572|
00161e  6008              STR      r0,[r1,#0]  ; amp_previous
;;;240    	d_amp_previous[1] = d_amp_present[1];
001620  48e0              LDR      r0,|L1.6564|
001622  6840              LDR      r0,[r0,#4]  ; d_amp_present
001624  49e0              LDR      r1,|L1.6568|
001626  6048              STR      r0,[r1,#4]  ; d_amp_previous
;;;241    	amp_previous[1]= amp_present[1];
001628  48db              LDR      r0,|L1.6552|
00162a  6840              LDR      r0,[r0,#4]  ; amp_present
00162c  49df              LDR      r1,|L1.6572|
00162e  6048              STR      r0,[r1,#4]  ; amp_previous
;;;242    
;;;243    	d_frq_previous[0] = d_frq_present[0];
001630  48df              LDR      r0,|L1.6576|
001632  6800              LDR      r0,[r0,#0]  ; d_frq_present
001634  49df              LDR      r1,|L1.6580|
001636  6008              STR      r0,[r1,#0]  ; d_frq_previous
;;;244    	frq_previous[0] = frq_present[0];
001638  48d8              LDR      r0,|L1.6556|
00163a  6800              LDR      r0,[r0,#0]  ; frq_present
00163c  49de              LDR      r1,|L1.6584|
00163e  6008              STR      r0,[r1,#0]  ; frq_previous
;;;245    	d_frq_previous[1] = d_frq_present[1];
001640  48db              LDR      r0,|L1.6576|
001642  6840              LDR      r0,[r0,#4]  ; d_frq_present
001644  49db              LDR      r1,|L1.6580|
001646  6048              STR      r0,[r1,#4]  ; d_frq_previous
;;;246    	frq_previous[1]= frq_present[1];
001648  48d4              LDR      r0,|L1.6556|
00164a  6840              LDR      r0,[r0,#4]  ; frq_present
00164c  49da              LDR      r1,|L1.6584|
00164e  6048              STR      r0,[r1,#4]  ; frq_previous
;;;247        
;;;248    	if(min(min(phi_present[0],phi_present[1]),min(phi_present[1],phi_present[2]))>2*PI)
001650  48d0              LDR      r0,|L1.6548|
001652  6880              LDR      r0,[r0,#8]  ; phi_present
001654  9016              STR      r0,[sp,#0x58]
001656  48cf              LDR      r0,|L1.6548|
001658  6840              LDR      r0,[r0,#4]  ; phi_present
00165a  9015              STR      r0,[sp,#0x54]
00165c  9916              LDR      r1,[sp,#0x58]
00165e  f7fffffe          BL       __aeabi_cfcmple
001662  d202              BCS      |L1.5738|
001664  48cb              LDR      r0,|L1.6548|
001666  6840              LDR      r0,[r0,#4]  ; phi_present
001668  e001              B        |L1.5742|
                  |L1.5738|
00166a  48ca              LDR      r0,|L1.6548|
00166c  6880              LDR      r0,[r0,#8]  ; phi_present
                  |L1.5742|
00166e  9018              STR      r0,[sp,#0x60]
001670  48c8              LDR      r0,|L1.6548|
001672  6840              LDR      r0,[r0,#4]  ; phi_present
001674  9016              STR      r0,[sp,#0x58]
001676  48c7              LDR      r0,|L1.6548|
001678  6800              LDR      r0,[r0,#0]  ; phi_present
00167a  9015              STR      r0,[sp,#0x54]
00167c  9916              LDR      r1,[sp,#0x58]
00167e  f7fffffe          BL       __aeabi_cfcmple
001682  d202              BCS      |L1.5770|
001684  48c3              LDR      r0,|L1.6548|
001686  6800              LDR      r0,[r0,#0]  ; phi_present
001688  e001              B        |L1.5774|
                  |L1.5770|
00168a  48c2              LDR      r0,|L1.6548|
00168c  6840              LDR      r0,[r0,#4]  ; phi_present
                  |L1.5774|
00168e  9017              STR      r0,[sp,#0x5c]
001690  9918              LDR      r1,[sp,#0x60]
001692  f7fffffe          BL       __aeabi_cfcmple
001696  d20f              BCS      |L1.5816|
001698  48be              LDR      r0,|L1.6548|
00169a  6840              LDR      r0,[r0,#4]  ; phi_present
00169c  9018              STR      r0,[sp,#0x60]
00169e  48bd              LDR      r0,|L1.6548|
0016a0  6800              LDR      r0,[r0,#0]  ; phi_present
0016a2  9017              STR      r0,[sp,#0x5c]
0016a4  9918              LDR      r1,[sp,#0x60]
0016a6  f7fffffe          BL       __aeabi_cfcmple
0016aa  d202              BCS      |L1.5810|
0016ac  48b9              LDR      r0,|L1.6548|
0016ae  6800              LDR      r0,[r0,#0]  ; phi_present
0016b0  e011              B        |L1.5846|
                  |L1.5810|
0016b2  48b8              LDR      r0,|L1.6548|
0016b4  6840              LDR      r0,[r0,#4]  ; phi_present
0016b6  e00e              B        |L1.5846|
                  |L1.5816|
0016b8  48b6              LDR      r0,|L1.6548|
0016ba  6880              LDR      r0,[r0,#8]  ; phi_present
0016bc  9018              STR      r0,[sp,#0x60]
0016be  48b5              LDR      r0,|L1.6548|
0016c0  6840              LDR      r0,[r0,#4]  ; phi_present
0016c2  9017              STR      r0,[sp,#0x5c]
0016c4  9918              LDR      r1,[sp,#0x60]
0016c6  f7fffffe          BL       __aeabi_cfcmple
0016ca  d202              BCS      |L1.5842|
0016cc  48b1              LDR      r0,|L1.6548|
0016ce  6840              LDR      r0,[r0,#4]  ; phi_present
0016d0  e001              B        |L1.5846|
                  |L1.5842|
0016d2  48b0              LDR      r0,|L1.6548|
0016d4  6880              LDR      r0,[r0,#8]  ; phi_present
                  |L1.5846|
0016d6  9019              STR      r0,[sp,#0x64]
0016d8  f7fffffe          BL       __aeabi_f2d
0016dc  4ab7              LDR      r2,|L1.6588|
0016de  4bb8              LDR      r3,|L1.6592|
0016e0  e9cd011a          STRD     r0,r1,[sp,#0x68]
0016e4  f7fffffe          BL       __aeabi_cdrcmple
0016e8  d232              BCS      |L1.5968|
;;;249    	{
;;;250    		phi_present[0]=phi_present[0]-2*PI;
0016ea  48aa              LDR      r0,|L1.6548|
0016ec  6800              LDR      r0,[r0,#0]  ; phi_present
0016ee  9017              STR      r0,[sp,#0x5c]
0016f0  f7fffffe          BL       __aeabi_f2d
0016f4  4ab1              LDR      r2,|L1.6588|
0016f6  4bb2              LDR      r3,|L1.6592|
0016f8  e9cd0118          STRD     r0,r1,[sp,#0x60]
0016fc  f7fffffe          BL       __aeabi_dsub
001700  e9cd011a          STRD     r0,r1,[sp,#0x68]
001704  f7fffffe          BL       __aeabi_d2f
001708  49a2              LDR      r1,|L1.6548|
00170a  6008              STR      r0,[r1,#0]  ; phi_present
;;;251    		phi_present[1]=phi_present[1]-2*PI;
00170c  4608              MOV      r0,r1
00170e  6840              LDR      r0,[r0,#4]  ; phi_present
001710  9017              STR      r0,[sp,#0x5c]
001712  f7fffffe          BL       __aeabi_f2d
001716  4aa9              LDR      r2,|L1.6588|
001718  4ba9              LDR      r3,|L1.6592|
00171a  e9cd0118          STRD     r0,r1,[sp,#0x60]
00171e  f7fffffe          BL       __aeabi_dsub
001722  e9cd011a          STRD     r0,r1,[sp,#0x68]
001726  f7fffffe          BL       __aeabi_d2f
00172a  499a              LDR      r1,|L1.6548|
00172c  6048              STR      r0,[r1,#4]  ; phi_present
;;;252    		phi_present[2]=phi_present[2]-2*PI;
00172e  4608              MOV      r0,r1
001730  6880              LDR      r0,[r0,#8]  ; phi_present
001732  9017              STR      r0,[sp,#0x5c]
001734  f7fffffe          BL       __aeabi_f2d
001738  4aa0              LDR      r2,|L1.6588|
00173a  4ba1              LDR      r3,|L1.6592|
00173c  e9cd0118          STRD     r0,r1,[sp,#0x60]
001740  f7fffffe          BL       __aeabi_dsub
001744  e9cd011a          STRD     r0,r1,[sp,#0x68]
001748  f7fffffe          BL       __aeabi_d2f
00174c  4991              LDR      r1,|L1.6548|
00174e  6088              STR      r0,[r1,#8]  ; phi_present
                  |L1.5968|
;;;253    	}
;;;254        
;;;255    	d_phi_previous[0]=d_phi_present[0];
001750  488d              LDR      r0,|L1.6536|
001752  6800              LDR      r0,[r0,#0]  ; d_phi_present
001754  499b              LDR      r1,|L1.6596|
001756  6008              STR      r0,[r1,#0]  ; d_phi_previous
;;;256    	phi_previous[0]=phi_present[0];
001758  488e              LDR      r0,|L1.6548|
00175a  6800              LDR      r0,[r0,#0]  ; phi_present
00175c  498c              LDR      r1,|L1.6544|
00175e  6008              STR      r0,[r1,#0]  ; phi_previous
;;;257    	d_phi_previous[1]=d_phi_present[1];
001760  4889              LDR      r0,|L1.6536|
001762  6840              LDR      r0,[r0,#4]  ; d_phi_present
001764  4997              LDR      r1,|L1.6596|
001766  6048              STR      r0,[r1,#4]  ; d_phi_previous
;;;258    	phi_previous[1]=phi_present[1];
001768  488a              LDR      r0,|L1.6548|
00176a  6840              LDR      r0,[r0,#4]  ; phi_present
00176c  4988              LDR      r1,|L1.6544|
00176e  6048              STR      r0,[r1,#4]  ; phi_previous
;;;259    	d_phi_previous[2]=d_phi_present[2];
001770  4885              LDR      r0,|L1.6536|
001772  6880              LDR      r0,[r0,#8]  ; d_phi_present
001774  4993              LDR      r1,|L1.6596|
001776  6088              STR      r0,[r1,#8]  ; d_phi_previous
;;;260    	phi_previous[2]=phi_present[2];
001778  4886              LDR      r0,|L1.6548|
00177a  6880              LDR      r0,[r0,#8]  ; phi_present
00177c  4984              LDR      r1,|L1.6544|
00177e  6088              STR      r0,[r1,#8]  ; phi_previous
;;;261    }
001780  b021              ADD      sp,sp,#0x84
001782  bd00              POP      {pc}
;;;262    /*********************************************胸鳍结束****************************************************************/												   
                          ENDP

                  cpg_run PROC
;;;263    void cpg_run()
001784  b510              PUSH     {r4,lr}
;;;264    {
;;;265    	CPG_calculate();
001786  f7fffffe          BL       CPG_calculate
;;;266    }
00178a  bd10              POP      {r4,pc}
;;;267    
                          ENDP

                  TaylorCos PROC
;;;300    
;;;301    float TaylorCos(float x)
00178c  e92d4ff8          PUSH     {r3-r11,lr}
;;;302    {
001790  4681              MOV      r9,r0
;;;303    	float y=0.0;
001792  f04f0a00          MOV      r10,#0
;;;304    	float temp;
;;;305    
;;;306            while(x>(PI))
001796  e00b              B        |L1.6064|
                  |L1.6040|
;;;307                x=x-2*PI;
001798  4648              MOV      r0,r9
00179a  f7fffffe          BL       __aeabi_f2d
00179e  4607              MOV      r7,r0
0017a0  4a86              LDR      r2,|L1.6588|
0017a2  4b87              LDR      r3,|L1.6592|
0017a4  f7fffffe          BL       __aeabi_dsub
0017a8  4605              MOV      r5,r0
0017aa  f7fffffe          BL       __aeabi_d2f
0017ae  4681              MOV      r9,r0
                  |L1.6064|
0017b0  4648              MOV      r0,r9                 ;306
0017b2  f7fffffe          BL       __aeabi_f2d
0017b6  4605              MOV      r5,r0                 ;306
0017b8  4a80              LDR      r2,|L1.6588|
0017ba  4b83              LDR      r3,|L1.6600|
0017bc  f7fffffe          BL       __aeabi_cdrcmple
0017c0  d3ea              BCC      |L1.6040|
;;;308            while(x<(-PI))
0017c2  e00b              B        |L1.6108|
                  |L1.6084|
;;;309                x=x+2*PI;
0017c4  4648              MOV      r0,r9
0017c6  f7fffffe          BL       __aeabi_f2d
0017ca  4607              MOV      r7,r0
0017cc  4a7b              LDR      r2,|L1.6588|
0017ce  4b7c              LDR      r3,|L1.6592|
0017d0  f7fffffe          BL       __aeabi_dadd
0017d4  4605              MOV      r5,r0
0017d6  f7fffffe          BL       __aeabi_d2f
0017da  4681              MOV      r9,r0
                  |L1.6108|
0017dc  4648              MOV      r0,r9                 ;308
0017de  f7fffffe          BL       __aeabi_f2d
0017e2  4605              MOV      r5,r0                 ;308
0017e4  4a75              LDR      r2,|L1.6588|
0017e6  4b79              LDR      r3,|L1.6604|
0017e8  f7fffffe          BL       __aeabi_cdcmple
0017ec  d3ea              BCC      |L1.6084|
;;;310            if(x>0&&x<=(PI/2))
0017ee  2100              MOVS     r1,#0
0017f0  4648              MOV      r0,r9
0017f2  f7fffffe          BL       __aeabi_cfrcmple
0017f6  d22c              BCS      |L1.6226|
0017f8  4648              MOV      r0,r9
0017fa  f7fffffe          BL       __aeabi_f2d
0017fe  4605              MOV      r5,r0
001800  4a6e              LDR      r2,|L1.6588|
001802  4b73              LDR      r3,|L1.6608|
001804  f7fffffe          BL       __aeabi_cdcmple
001808  d823              BHI      |L1.6226|
;;;311    		y=1-x*x/2+x*x*x*x/24;
00180a  4649              MOV      r1,r9
00180c  4648              MOV      r0,r9
00180e  f7fffffe          BL       __aeabi_fmul
001812  4683              MOV      r11,r0
001814  4649              MOV      r1,r9
001816  f7fffffe          BL       __aeabi_fmul
00181a  4680              MOV      r8,r0
00181c  4649              MOV      r1,r9
00181e  f7fffffe          BL       __aeabi_fmul
001822  4607              MOV      r7,r0
001824  496b              LDR      r1,|L1.6612|
001826  f7fffffe          BL       __aeabi_fdiv
00182a  4605              MOV      r5,r0
00182c  4649              MOV      r1,r9
00182e  4648              MOV      r0,r9
001830  f7fffffe          BL       __aeabi_fmul
001834  4680              MOV      r8,r0
001836  f04f4180          MOV      r1,#0x40000000
00183a  f7fffffe          BL       __aeabi_fdiv
00183e  4607              MOV      r7,r0
001840  f04f517e          MOV      r1,#0x3f800000
001844  f7fffffe          BL       __aeabi_frsub
001848  4606              MOV      r6,r0
00184a  4629              MOV      r1,r5
00184c  f7fffffe          BL       __aeabi_fadd
001850  4682              MOV      r10,r0
                  |L1.6226|
;;;312    
;;;313            if(x>(-PI/2)&&x<=0)
001852  4648              MOV      r0,r9
001854  f7fffffe          BL       __aeabi_f2d
001858  4605              MOV      r5,r0
00185a  4a58              LDR      r2,|L1.6588|
00185c  4b5e              LDR      r3,|L1.6616|
00185e  f7fffffe          BL       __aeabi_cdrcmple
001862  d234              BCS      |L1.6350|
001864  2100              MOVS     r1,#0
001866  4648              MOV      r0,r9
001868  f7fffffe          BL       __aeabi_cfcmple
00186c  d82f              BHI      |L1.6350|
;;;314    	   {
;;;315    		temp=PI-x;
00186e  4648              MOV      r0,r9
001870  f7fffffe          BL       __aeabi_f2d
001874  4607              MOV      r7,r0
001876  4a51              LDR      r2,|L1.6588|
001878  4b53              LDR      r3,|L1.6600|
00187a  f7fffffe          BL       __aeabi_drsub
00187e  4605              MOV      r5,r0
001880  f7fffffe          BL       __aeabi_d2f
001884  4604              MOV      r4,r0
;;;316    		y=1-temp*temp/2+temp*temp*temp*temp/24;
001886  4621              MOV      r1,r4
001888  4620              MOV      r0,r4
00188a  f7fffffe          BL       __aeabi_fmul
00188e  4683              MOV      r11,r0
001890  4621              MOV      r1,r4
001892  f7fffffe          BL       __aeabi_fmul
001896  4607              MOV      r7,r0
001898  4621              MOV      r1,r4
00189a  f7fffffe          BL       __aeabi_fmul
00189e  4606              MOV      r6,r0
0018a0  494c              LDR      r1,|L1.6612|
0018a2  f7fffffe          BL       __aeabi_fdiv
0018a6  4605              MOV      r5,r0
0018a8  4621              MOV      r1,r4
0018aa  4620              MOV      r0,r4
0018ac  f7fffffe          BL       __aeabi_fmul
0018b0  4607              MOV      r7,r0
0018b2  f04f4180          MOV      r1,#0x40000000
0018b6  f7fffffe          BL       __aeabi_fdiv
0018ba  4606              MOV      r6,r0
0018bc  f04f517e          MOV      r1,#0x3f800000
0018c0  f7fffffe          BL       __aeabi_frsub
0018c4  4680              MOV      r8,r0
0018c6  4629              MOV      r1,r5
0018c8  f7fffffe          BL       __aeabi_fadd
0018cc  4682              MOV      r10,r0
                  |L1.6350|
;;;317    	   }
;;;318    
;;;319            if(x>(PI/2)&&x<=PI)
0018ce  4648              MOV      r0,r9
0018d0  f7fffffe          BL       __aeabi_f2d
0018d4  4605              MOV      r5,r0
0018d6  4a39              LDR      r2,|L1.6588|
0018d8  4b3d              LDR      r3,|L1.6608|
0018da  f7fffffe          BL       __aeabi_cdrcmple
0018de  d238              BCS      |L1.6482|
0018e0  4648              MOV      r0,r9
0018e2  f7fffffe          BL       __aeabi_f2d
0018e6  4605              MOV      r5,r0
0018e8  4a34              LDR      r2,|L1.6588|
0018ea  4b37              LDR      r3,|L1.6600|
0018ec  f7fffffe          BL       __aeabi_cdcmple
0018f0  d82f              BHI      |L1.6482|
;;;320    	   {
;;;321    		temp=x-PI;
0018f2  4648              MOV      r0,r9
0018f4  f7fffffe          BL       __aeabi_f2d
0018f8  4605              MOV      r5,r0
0018fa  4a30              LDR      r2,|L1.6588|
0018fc  4b32              LDR      r3,|L1.6600|
0018fe  f7fffffe          BL       __aeabi_dsub
001902  4607              MOV      r7,r0
001904  f7fffffe          BL       __aeabi_d2f
001908  4604              MOV      r4,r0
;;;322    		y=temp*temp/2-temp*temp*temp*temp/24-1;
00190a  4621              MOV      r1,r4
00190c  4620              MOV      r0,r4
00190e  f7fffffe          BL       __aeabi_fmul
001912  4621              MOV      r1,r4
001914  9000              STR      r0,[sp,#0]
001916  f7fffffe          BL       __aeabi_fmul
00191a  4683              MOV      r11,r0
00191c  4621              MOV      r1,r4
00191e  f7fffffe          BL       __aeabi_fmul
001922  4680              MOV      r8,r0
001924  492b              LDR      r1,|L1.6612|
001926  f7fffffe          BL       __aeabi_fdiv
00192a  4606              MOV      r6,r0
00192c  4621              MOV      r1,r4
00192e  4620              MOV      r0,r4
001930  f7fffffe          BL       __aeabi_fmul
001934  4680              MOV      r8,r0
001936  f04f4180          MOV      r1,#0x40000000
00193a  f7fffffe          BL       __aeabi_fdiv
00193e  4607              MOV      r7,r0
001940  4631              MOV      r1,r6
001942  f7fffffe          BL       __aeabi_fsub
001946  4605              MOV      r5,r0
001948  f04f517e          MOV      r1,#0x3f800000
00194c  f7fffffe          BL       __aeabi_fsub
001950  4682              MOV      r10,r0
                  |L1.6482|
;;;323    	   }
;;;324    
;;;325    		if(x>=(-PI)&&x<=(-PI/2))
001952  4648              MOV      r0,r9
001954  f7fffffe          BL       __aeabi_f2d
001958  4605              MOV      r5,r0
00195a  4a18              LDR      r2,|L1.6588|
00195c  4b1b              LDR      r3,|L1.6604|
00195e  f7fffffe          BL       __aeabi_cdrcmple
001962  d863              BHI      |L1.6700|
001964  4648              MOV      r0,r9
001966  f7fffffe          BL       __aeabi_f2d
00196a  4605              MOV      r5,r0
00196c  4a13              LDR      r2,|L1.6588|
00196e  4b1a              LDR      r3,|L1.6616|
001970  f7fffffe          BL       __aeabi_cdcmple
001974  d85a              BHI      |L1.6700|
;;;326    	   {
;;;327    	        temp=2*PI-x;
001976  4648              MOV      r0,r9
001978  f7fffffe          BL       __aeabi_f2d
00197c  4607              MOV      r7,r0
00197e  4a0f              LDR      r2,|L1.6588|
001980  4b0f              LDR      r3,|L1.6592|
001982  f7fffffe          BL       __aeabi_drsub
001986  e029              B        |L1.6620|
                  |L1.6536|
                          DCD      d_phi_present
                  |L1.6540|
                          DCD      T
                  |L1.6544|
                          DCD      phi_previous
                  |L1.6548|
                          DCD      phi_present
                  |L1.6552|
                          DCD      amp_present
                  |L1.6556|
                          DCD      frq_present
                  |L1.6560|
                          DCD      Pectoral_Theta
                  |L1.6564|
                          DCD      d_amp_present
                  |L1.6568|
                          DCD      d_amp_previous
                  |L1.6572|
                          DCD      amp_previous
                  |L1.6576|
                          DCD      d_frq_present
                  |L1.6580|
                          DCD      d_frq_previous
                  |L1.6584|
                          DCD      frq_previous
                  |L1.6588|
                          DCD      0xf01b866e
                  |L1.6592|
                          DCD      0x401921f9
                  |L1.6596|
                          DCD      d_phi_previous
                  |L1.6600|
                          DCD      0x400921f9
                  |L1.6604|
                          DCD      0xc00921f9
                  |L1.6608|
                          DCD      0x3ff921f9
                  |L1.6612|
                          DCD      0x41c00000
                  |L1.6616|
                          DCD      0xbff921f9
                  |L1.6620|
0019dc  4605              MOV      r5,r0
0019de  f7fffffe          BL       __aeabi_d2f
0019e2  4604              MOV      r4,r0
;;;328    	        y=temp*temp/2-temp*temp*temp*temp/24-1;
0019e4  4621              MOV      r1,r4
0019e6  4620              MOV      r0,r4
0019e8  f7fffffe          BL       __aeabi_fmul
0019ec  4621              MOV      r1,r4
0019ee  9000              STR      r0,[sp,#0]
0019f0  f7fffffe          BL       __aeabi_fmul
0019f4  4683              MOV      r11,r0
0019f6  4621              MOV      r1,r4
0019f8  f7fffffe          BL       __aeabi_fmul
0019fc  4680              MOV      r8,r0
0019fe  490d              LDR      r1,|L1.6708|
001a00  f7fffffe          BL       __aeabi_fdiv
001a04  4606              MOV      r6,r0
001a06  4621              MOV      r1,r4
001a08  4620              MOV      r0,r4
001a0a  f7fffffe          BL       __aeabi_fmul
001a0e  4680              MOV      r8,r0
001a10  f04f4180          MOV      r1,#0x40000000
001a14  f7fffffe          BL       __aeabi_fdiv
001a18  4607              MOV      r7,r0
001a1a  4631              MOV      r1,r6
001a1c  f7fffffe          BL       __aeabi_fsub
001a20  4605              MOV      r5,r0
001a22  f04f517e          MOV      r1,#0x3f800000
001a26  f7fffffe          BL       __aeabi_fsub
001a2a  4682              MOV      r10,r0
                  |L1.6700|
;;;329    	   }
;;;330    	 return y;
001a2c  4650              MOV      r0,r10
;;;331    }
001a2e  e8bd8ff8          POP      {r3-r11,pc}
;;;332    
                          ENDP

001a32  0000              DCW      0x0000
                  |L1.6708|
                          DCD      0x41c00000

                          AREA ||.bss||, DATA, NOINIT, ALIGN=2

                  theta
                          %        12
                  Joint_Angle_value
                          %        12
                  Motor_Dynamic_Offset_degree
                          %        12
                  Motor_Static_Offset_degree
                          %        12
                  vol
                          %        24
                  Log_Angle
                          %        36
                  dr_previous
                          %        16
                  dr_present
                          %        16
                  r_previous
                          %        16
                  r_present
                          %        16
                  dx_previous
                          %        12
                  dx_present
                          %        12
                  x_previous
                          %        12
                  x_present
                          %        12
                  dfai_previous
                          %        12
                  dfai
                          %        12
                  fai_previous
                          %        12
                  ||fai||
                          %        12
                  record_data
                          %        36
                  clear_data
                          %        36
                  Pectoral_Log_Angle
                          %        36
                  d_phi_previous
                          %        12
                  d_phi_present
                          %        12
                  phi_previous
                          %        12
                  phi_present
                          %        12

                          AREA ||.data||, DATA, ALIGN=2

                  Motor_Speed
000000  3f800000          DCFS     0x3f800000 ; 1
                  Motor_Log_degree_12
000004  42340000          DCFS     0x42340000 ; 45
                  Motor_Log_degree_13
000008  00000000          DCFS     0x00000000 ; 0
                  Motor_Amplitude_degree
00000c  41f00000          DCFS     0x41f00000 ; 30
000010  41f00000          DCFS     0x41f00000 ; 30
000014  00000000          DCFS     0x00000000 ; 0
                  Coupling_Weight
000018  3f000000          DCFS     0x3f000000 ; 0.5
00001c  3f000000          DCFS     0x3f000000 ; 0.5
000020  3f000000          DCFS     0x3f000000 ; 0.5
000024  3f000000          DCFS     0x3f000000 ; 0.5
000028  3f000000          DCFS     0x3f000000 ; 0.5
00002c  3f000000          DCFS     0x3f000000 ; 0.5
000030  3f000000          DCFS     0x3f000000 ; 0.5
000034  3f000000          DCFS     0x3f000000 ; 0.5
000038  3f000000          DCFS     0x3f000000 ; 0.5
                  Gain_R
                          DCD      0x0000000a
                  Gain_X
                          DCD      0x00000005
                  T
000044  3a83126f          DCFS     0x3a83126f ; 0.0010000000474974513
                  cpg_A
000048  00                DCB      0x00
                  cpg_F
000049  00                DCB      0x00
                  cpg_P
00004a  00                DCB      0x00
                  cpg_or_not
00004b  00                DCB      0x00
                  record_data_sign
                          DCD      0x00000000
                  clear_data_sign
                          DCD      0x00000000
                  flag
                          DCD      0x00000000
                  Pectoral_Theta
000058  00000000          DCFS     0x00000000 ; 0
00005c  00000000          DCFS     0x00000000 ; 0
                  Pectoral_Volcety
000060  3f800000          DCFS     0x3f800000 ; 1
                  Pectoral_Phase_Dif
000064  42b40000          DCFS     0x42b40000 ; 90
                  Pectoral_Amplitude
000068  42480000          DCFS     0x42480000 ; 50
00006c  428c0000          DCFS     0x428c0000 ; 70
                  Pectoral_Dynamic_Offset
000070  00000000          DCFS     0x00000000 ; 0
000074  00000000          DCFS     0x00000000 ; 0
                  Pectoral_Coupling_Weight
000078  3f000000          DCFS     0x3f000000 ; 0.5
00007c  3f000000          DCFS     0x3f000000 ; 0.5
000080  3f000000          DCFS     0x3f000000 ; 0.5
000084  3f000000          DCFS     0x3f000000 ; 0.5
000088  3f000000          DCFS     0x3f000000 ; 0.5
00008c  3f000000          DCFS     0x3f000000 ; 0.5
000090  3f000000          DCFS     0x3f000000 ; 0.5
000094  3f000000          DCFS     0x3f000000 ; 0.5
000098  3f000000          DCFS     0x3f000000 ; 0.5
                  d_amp_previous
00009c  00000000          DCFS     0x00000000 ; 0
0000a0  00000000          DCFS     0x00000000 ; 0
                  d_amp_present
0000a4  00000000          DCFS     0x00000000 ; 0
0000a8  00000000          DCFS     0x00000000 ; 0
                  amp_previous
0000ac  00000000          DCFS     0x00000000 ; 0
0000b0  00000000          DCFS     0x00000000 ; 0
                  amp_present
0000b4  00000000          DCFS     0x00000000 ; 0
0000b8  00000000          DCFS     0x00000000 ; 0
                  d_frq_previous
0000bc  00000000          DCFS     0x00000000 ; 0
0000c0  00000000          DCFS     0x00000000 ; 0
                  d_frq_present
0000c4  00000000          DCFS     0x00000000 ; 0
0000c8  00000000          DCFS     0x00000000 ; 0
                  frq_previous
0000cc  00000000          DCFS     0x00000000 ; 0
0000d0  00000000          DCFS     0x00000000 ; 0
                  frq_present
0000d4  00000000          DCFS     0x00000000 ; 0
0000d8  00000000          DCFS     0x00000000 ; 0
